(dp0
S'ByCode'
p1
(dp2
S''
p3
(dp4
S'code'
p5
g3
sS'name'
p6
S'Marshall Residence Halls'
p7
sS'keywords'
p8
g3
sS'y'
p9
S'2634'
p10
sS'x'
p11
S'3337'
p12
sS'id'
p13
S'467'
p14
sS'aliases'
p15
(lp16
S'Residence Halls, Marshall College'
p17
assS'ebu2'
p18
(dp19
g5
S'ebu2'
p20
sg6
S'Engineering Building Unit II'
p21
sg8
g3
sg9
S'3161'
p22
sg11
S'5688'
p23
sg13
S'137'
p24
sg15
(lp25
S'EBU-2'
p26
assS'cmme'
p27
(dp28
g5
S'cmme'
p29
sg6
S'Cellular and Molecular Medicine East'
p30
sg8
g3
sg9
S'4470'
p31
sg11
S'4620'
p32
sg13
S'92'
p33
sg15
(lp34
S'CMM East'
p35
assS'ebu1'
p36
(dp37
g5
S'ebu1'
p38
sg6
S'Engineering Building Unit I'
p39
sg8
g3
sg9
S'3039'
p40
sg11
S'5148'
p41
sg13
S'136'
p42
sg15
(lp43
S'EBU-1'
p44
assS'clics'
p45
(dp46
g5
S'clics'
p47
sg6
S'Center for Library and Instructional Computing Services'
p48
sg8
g3
sg9
S'5140'
p49
sg11
S'3851'
p50
sg13
S'161'
p51
sg15
(lp52
S'Revelle Library - Galbraith'
p53
aS'CLICS'
p54
assS'geisl'
p55
(dp56
g5
S'geisl'
p57
sg6
S'Geisel Library'
p58
sg8
g3
sg9
S'3159'
p59
sg11
S'4657'
p60
sg13
S'162'
p61
sg15
(lp62
ssS'centr'
p63
(dp64
g5
S'centr'
p65
sg6
S'Center Hall'
p66
sg8
g3
sg9
S'4032'
p67
sg11
S'4724'
p68
sg13
S'112'
p69
sg15
(lp70
ssS'pfbh'
p71
(dp72
g5
S'pfbh'
p73
sg6
S'Powell-Focht Bioengineering Hall'
p74
sg8
g3
sg9
S'3045'
p75
sg11
S'5391'
p76
sg13
S'346'
p77
sg15
(lp78
S'EBU-3A'
p79
aS'PFBH'
p80
assS'cmrr'
p81
(dp82
g5
S'cmrr'
p83
sg6
S'Center for Magnetic Recording Research'
p84
sg8
g3
sg9
S'3343'
p85
sg11
S'5173'
p86
sg13
S'94'
p87
sg15
(lp88
S'CMRR'
p89
assS'cicc'
p90
(dp91
g5
S'cicc'
p92
sg6
S'Copley International Conference Center'
p93
sg8
g3
sg9
S'2071'
p94
sg11
S'3786'
p95
sg13
S'179'
p96
sg15
(lp97
S'Institute of the Americas, Copley International Conference Center'
p98
assS'cmmw'
p99
(dp100
g5
S'cmmw'
p101
sg6
S'George Palade Laboratories for Cellular and Molecular Medicine'
p102
sg8
g3
sg9
S'4468'
p103
sg11
S'4482'
p104
sg13
S'93'
p105
sg15
(lp106
S'CMM West (George Palade Laboratories)'
p107
aS'Cellular and Molecular Medicine West'
p108
assS'rvpro'
p109
(dp110
g5
S'rvpro'
p111
sg6
S'Revelle College Provost Office'
p112
sg8
g3
sg9
S'5313'
p113
sg11
S'4081'
p114
sg13
S'236'
p115
sg15
(lp116
ssS'apm'
p117
(dp118
g5
S'apm'
p119
sg6
S'Applied Physics and Mathematics'
p120
sg8
g3
sg9
S'3736'
p121
sg11
S'3836'
p122
sg13
S'68'
p123
sg15
(lp124
S'AP&M'
p125
assS'peter'
p126
(dp127
g5
S'peter'
p128
sg6
S'Peterson Hall'
p129
sg8
g3
sg9
S'3474'
p130
sg11
S'4055'
p131
sg13
S'224'
p132
sg15
(lp133
ssS'mande'
p134
(dp135
g5
S'mande'
p136
sg6
S'Mandeville Center'
p137
sg8
g3
sg9
S'4067'
p138
sg11
S'4102'
p139
sg13
S'193'
p140
sg15
(lp141
S'University Art Gallery'
p142
assS'schol'
p143
(dp144
g5
S'schol'
p145
sg6
S'Scholander Hall'
p146
sg8
g3
sg9
S'7326'
p147
sg11
S'830'
p148
sg13
S'247'
p149
sg15
(lp150
S'Physiological Research Lab'
p151
aS'Discovery Way, 8655'
p152
assS'pcynh'
p153
(dp154
g5
S'pcynh'
p155
sg6
S'Pepper Canyon Hall'
p156
sg8
g3
sg9
S'3964'
p157
sg11
S'5522'
p158
sg13
S'378'
p159
sg15
(lp160
S'Multipurpose Building, Main Campus'
p161
assS'ebu3b'
p162
(dp163
g5
S'ebu3b'
p164
sg6
S'Computer Science and Engineering Building'
p165
sg8
g3
sg9
S'2963'
p166
sg11
S'5607'
p167
sg13
S'379'
p168
sg15
(lp169
S'CSE'
p170
aS'EBU-3B'
p171
assS'leddn aud'
p172
(dp173
g5
S'leddn aud'
p174
sg6
S'Ledden Hall'
p175
sg8
g3
sg9
S'3805'
p176
sg11
S'3687'
p177
sg13
S'405'
p178
sg15
(lp179
S'HSS 2250'
p180
aS'Patrick J. Ledden Auditorium'
p181
assS'sdsc'
p182
(dp183
g5
S'sdsc'
p184
sg6
S'San Diego Supercomputer Center'
p185
sg8
g3
sg9
S'2228'
p186
sg11
S'4144'
p187
sg13
S'240'
p188
sg15
(lp189
S'Supercomputer Center, San Dieg'
p190
aS'SDSC'
p191
assS'eckrt'
p192
(dp193
g5
S'eckrt'
p194
sg6
S'Eckart Building'
p195
sg8
g3
sg9
S'6974'
p196
sg11
S'1095'
p197
sg13
S'150'
p198
sg15
(lp199
S'SIO Library'
p200
assS'csb'
p201
(dp202
g5
S'csb'
p203
sg6
S'Cognitive Science Building'
p204
sg8
g3
sg9
S'3336'
p205
sg11
S'4268'
p206
sg13
S'127'
p207
sg15
(lp208
S'CSB'
p209
assS'lit'
p210
(dp211
g5
S'lit'
p212
sg6
S'Literature Building'
p213
sg8
g3
sg9
S'3297'
p214
sg11
S'5529'
p215
sg13
S'189'
p216
sg15
(lp217
ssS'mcgil'
p218
(dp219
g5
S'mcgil'
p220
sg6
S'William J. McGill Hall'
p221
sg8
g3
sg9
S'3736'
p222
sg11
S'3589'
p223
sg13
S'202'
p224
sg15
(lp225
S'Mandler Hall (part of McGill Hall)'
p226
assS'scrb'
p227
(dp228
g5
S'scrb'
p229
sg6
S'Stein Clinical Research Building'
p230
sg8
g3
sg9
S'4636'
p231
sg11
S'5474'
p232
sg13
S'253'
p233
sg15
(lp234
S'SCR'
p235
assS'ioa'
p236
(dp237
g5
S'ioa'
p238
sg6
S'Institute of the Americas Building'
p239
sg8
g3
sg9
S'1995'
p240
sg11
S'3865'
p241
sg13
S'178'
p242
sg15
(lp243
S'IOA'
p244
assS'rittr'
p245
(dp246
g5
S'rittr'
p247
sg6
S'Ritter Hall'
p248
sg8
g3
sg9
S'7482'
p249
sg11
S'920'
p250
sg13
S'237'
p251
sg15
(lp252
S'8635 Discovery Way'
p253
assS'mayer'
p254
(dp255
g5
S'mayer'
p256
sg6
S'Mayer Hall'
p257
sg8
g3
sg9
S'4753'
p258
sg11
S'4009'
p259
sg13
S'201'
p260
sg15
(lp261
ssS'wlh'
p262
(dp263
g5
S'wlh'
p264
sg6
S'Warren Lecture Hall'
p265
sg8
g3
sg9
S'3276'
p266
sg11
S'5405'
p267
sg13
S'468'
p268
sg15
(lp269
S'WLH'
p270
assS'tmca'
p271
(dp272
g5
S'tmca'
p273
sg6
S'Marshall College Administration Building'
p274
sg8
g3
sg9
S'3082'
p275
sg11
S'3846'
p276
sg13
S'196'
p277
sg15
(lp278
S'Marshall College Provost Office'
p279
aS'Thurgood Marshall College Administration Building'
p280
assS'bio'
p281
(dp282
g5
S'bio'
p283
sg6
S'Biology Building'
p284
sg8
g3
sg9
S'3831'
p285
sg11
S'3834'
p286
sg13
S'85'
p287
sg15
(lp288
S'M2B'
p289
aS'Muir Biology Building'
p290
assS'sequo'
p291
(dp292
g5
S'sequo'
p293
sg6
S'Sequoyah Hall'
p294
sg8
g3
sg9
S'2861'
p295
sg11
S'3889'
p296
sg13
S'248'
p297
sg15
(lp298
ssS'ury-a'
p299
(dp300
g5
S'ury-a'
p301
sg6
S'Urey Hall Office Addition'
p302
sg8
g3
sg9
S'4789'
p303
sg11
S'3849'
p304
sg13
S'297'
p305
sg15
(lp306
S'Urey Hall Annex'
p307
assS'pacif'
p308
(dp309
g5
S'pacif'
p310
sg6
S'Pacific Hall'
p311
sg8
g3
sg9
S'4560'
p312
sg11
S'3572'
p313
sg13
S'221'
p314
sg15
(lp315
ssS'price'
p316
(dp317
g5
S'price'
p318
sg6
S'Price Center'
p319
sg8
S'food'
p320
sg9
S'3613'
p321
sg11
S'4896'
p322
sg13
S'231'
p323
sg15
(lp324
S'Food Court'
p325
aS'UCSD Bookstore'
p326
assS'econ'
p327
(dp328
g5
S'econ'
p329
sg6
S'Economics Building'
p330
sg8
g3
sg9
S'2880'
p331
sg11
S'3956'
p332
sg13
S'151'
p333
sg15
(lp334
ssS'mcc'
p335
(dp336
g5
S'mcc'
p337
sg6
S'Media Center'
p338
sg8
g3
sg9
S'3070'
p339
sg11
S'4037'
p340
sg13
S'203'
p341
sg15
(lp342
S'Communication Building'
p343
assS'ntv'
p344
(dp345
g5
S'ntv'
p346
sg6
S'Nierenberg Annex'
p347
sg8
g3
sg9
S'6489'
p348
sg11
S'1549'
p349
sg13
S'312'
p350
sg15
(lp351
S'NTV'
p352
assS'hss'
p353
(dp354
g5
S'hss'
p355
sg6
S'Humanities and Social Sciences'
p356
sg8
g3
sg9
S'3883'
p357
sg11
S'3688'
p358
sg13
S'166'
p359
sg15
(lp360
S'H & SS'
p361
assS'york'
p362
(dp363
g5
S'york'
p364
sg6
S'York Hall'
p365
sg8
g3
sg9
S'4979'
p366
sg11
S'4028'
p367
sg13
S'307'
p368
sg15
(lp369
S'Herbert F. York Undergraduate Sciences Building'
p370
assS'birch'
p371
(dp372
g5
S'birch'
p373
sg6
S'Birch Aquarium at Scripps'
p374
sg8
g3
sg9
S'7374'
p375
sg11
S'1567'
p376
sg13
S'86'
p377
sg15
(lp378
ssS'urey'
p379
(dp380
g5
S'urey'
p381
sg6
S'Urey Hall'
p382
sg8
g3
sg9
S'4689'
p383
sg11
S'3789'
p384
sg13
S'296'
p385
sg15
(lp386
ssS'bsb'
p387
(dp388
g5
S'bsb'
p389
sg6
S'Basic Science Building'
p390
sg8
g3
sg9
S'4658'
p391
sg11
S'4984'
p392
sg13
S'81'
p393
sg15
(lp394
S'Biomedical Sciences and Library Building,'
p395
aS'BSB'
p396
assS'ssb'
p397
(dp398
g5
S'ssb'
p399
sg6
S'Social Sciences Building'
p400
sg8
g3
sg9
S'2403'
p401
sg11
S'3989'
p402
sg13
S'246'
p403
sg15
(lp404
S'SSB'
p405
assS'serf'
p406
(dp407
g5
S'serf'
p408
sg6
S'Science and Engineering Research Facility'
p409
sg8
g3
sg9
S'3563'
p410
sg11
S'5246'
p411
sg13
S'242'
p412
sg15
(lp413
S'SERF'
p414
assS'mndlr'
p415
(dp416
g5
S'mndlr'
p417
sg6
S'Mandler Hall'
p418
sg8
g3
sg9
S'3658'
p419
sg11
S'3580'
p420
sg13
S'388'
p421
sg15
(lp422
S'McGill Hall Annex'
p423
assS'lffb'
p424
(dp425
g5
S'lffb'
p426
sg6
S'Leichtag Biomedical Building'
p427
sg8
g3
sg9
S'4410'
p428
sg11
S'4813'
p429
sg13
S'348'
p430
sg15
(lp431
S'Biomedical Research Building, Leichtag Family Foundation'
p432
aS'Research Facility, School of Medicine'
p433
aS'SMuRF'
p434
aS'School of Medicine Research Building'
p435
aS'SoMRF'
p436
assS'forum'
p437
(dp438
g5
S'forum'
p439
sg6
S'Mandell Weiss Forum'
p440
sg8
g3
sg9
S'5694'
p441
sg11
S'3800'
p442
sg13
S'158'
p443
sg15
(lp444
S'Weiss Forum Theater, Mandell'
p445
assS'potkr'
p446
(dp447
g5
S'potkr'
p448
sg6
S'Potiker Theatre'
p449
sg8
g3
sg9
S'5872'
p450
sg11
S'3962'
p451
sg13
S'403'
p452
sg15
(lp453
ssS'cmg'
p454
(dp455
g5
S'cmg'
p456
sg6
S'Center for Molecular Genetics'
p457
sg8
g3
sg9
S'4689'
p458
sg11
S'4502'
p459
sg13
S'91'
p460
sg15
(lp461
S'CMG'
p462
aS'Center for Molecular Genetics Building'
p463
assS'crb'
p464
(dp465
g5
S'crb'
p466
sg6
S'Chemistry Research Building'
p467
sg8
g3
sg9
S'3282'
p468
sg11
S'4041'
p469
sg13
S'95'
p470
sg15
(lp471
S'CRB'
p472
assS'hubbs'
p473
(dp474
g5
S'hubbs'
p475
sg6
S'Hubbs Hall'
p476
sg8
g3
sg9
S'6939'
p477
sg11
S'916'
p478
sg13
S'169'
p479
sg15
(lp480
S'Marine Biology Building'
p481
assS'lasb'
p482
(dp483
g5
S'lasb'
p484
sg6
S'Gildred Latin American Studies Building'
p485
sg8
g3
sg9
S'1923'
p486
sg11
S'3784'
p487
sg13
S'180'
p488
sg15
(lp489
S'Institute of the Americas, Latin American Studies Building'
p490
aS'LASB'
p491
assS'recgm'
p492
(dp493
g5
S'recgm'
p494
sg6
S'Recreation Gymnasium'
p495
sg8
g3
sg9
S'4367'
p496
sg11
S'3788'
p497
sg13
S'235'
p498
sg15
(lp499
S'Gymnasium, Recreational'
p500
assS'bonn'
p501
(dp502
g5
S'bonn'
p503
sg6
S'Bonner Hall'
p504
sg8
g3
sg9
S'4548'
p505
sg11
S'3958'
p506
sg13
S'88'
p507
sg15
(lp508
ssS'sverd'
p509
(dp510
g5
S'sverd'
p511
sg6
S'Sverdrup Hall'
p512
sg8
g3
sg9
S'7743'
p513
sg11
S'899'
p514
sg13
S'262'
p515
sg15
(lp516
S'Discovery Way, 8615'
p517
assS'mtf'
p518
(dp519
g5
S'mtf'
p520
sg6
S'Medical Teaching Facility'
p521
sg8
g3
sg9
S'4623'
p522
sg11
S'5147'
p523
sg13
S'191'
p524
sg15
(lp525
S'MTF'
p526
assS'ccc'
p527
(dp528
g5
S'ccc'
p529
sg6
S'Cross-Cultural Center'
p530
sg8
g3
sg9
S'3536'
p531
sg11
S'5541'
p532
sg13
S'130'
p533
sg15
(lp534
ssS'solis'
p535
(dp536
g5
S'solis'
p537
sg6
S'Solis Hall'
p538
sg8
g3
sg9
S'3211'
p539
sg11
S'4146'
p540
sg13
S'250'
p541
sg15
(lp542
S'Faustina Solis Lecture Hall'
p543
asssS'ByID'
p544
(dp545
S'344'
p546
(dp547
g5
g3
sg6
S'University Center, 968'
p548
sg8
g3
sg9
S'4046'
p549
sg11
S'5381'
p550
sg13
g546
sg15
(lp551
ssS'345'
p552
(dp553
g5
g3
sg6
S'University Center 969'
p554
sg8
g3
sg9
S'4000'
p555
sg11
S'5378'
p556
sg13
g552
sg15
(lp557
ssg77
g72
sS'347'
p558
(dp559
g5
g3
sg6
S'Natural Sciences Building'
p560
sg8
g3
sg9
S'4751'
p561
sg11
S'3493'
p562
sg13
g558
sg15
(lp563
S'NSB'
p564
assS'340'
p565
(dp566
g5
g3
sg6
S'University Extension - Building Y'
p567
sg8
g3
sg9
S'3104'
p568
sg11
S'3350'
p569
sg13
g565
sg15
(lp570
S'UCSD Extension Complex - Building Y'
p571
assS'341'
p572
(dp573
g5
g3
sg6
S'University Extension - Building Z'
p574
sg8
g3
sg9
S'3100'
p575
sg11
S'3307'
p576
sg13
g572
sg15
(lp577
S'UCSD Extension Complex - Building Z'
p578
assS'342'
p579
(dp580
g5
g3
sg6
S'LGBT Resource Center'
p581
sg8
g3
sg9
S'4082'
p582
sg11
S'5329'
p583
sg13
g579
sg15
(lp584
S'University Center Building 312'
p585
assS'343'
p586
(dp587
g5
g3
sg6
S'University Center, 967'
p588
sg8
g3
sg9
S'4155'
p589
sg11
S'5287'
p590
sg13
g586
sg15
(lp591
S'CREATE Module'
p592
assg430
g425
sS'349'
p593
(dp594
g5
g3
sg6
S'Kalmia'
p595
sg8
g3
sg9
S'5252'
p596
sg11
S'5244'
p597
sg13
g593
sg15
(lp598
S'School of Medicine Module 870'
p599
assS'298'
p600
(dp601
g5
g3
sg6
S'Veterans Administration Hospital'
p602
sg8
g3
sg9
S'4720'
p603
sg11
S'5873'
p604
sg13
g600
sg15
(lp605
S'Medical Center - Veterans Administration'
p606
assS'299'
p607
(dp608
g5
g3
sg6
S'Visual Arts Facility - Building 1'
p609
sg8
g3
sg9
S'3647'
p610
sg11
S'5437'
p611
sg13
g607
sg15
(lp612
ssg385
g380
sg305
g300
sS'294'
p613
(dp614
g5
g3
sg6
S'University Extension - Building O - East'
p615
sg8
g3
sg9
S'2853'
p616
sg11
S'3496'
p617
sg13
g613
sg15
(lp618
S'UCSD Extension Complex - Building O - East'
p619
assS'295'
p620
(dp621
g5
g3
sg6
S'University Extension - Building O - West'
p622
sg8
g3
sg9
S'2880'
p623
sg11
S'3443'
p624
sg13
g620
sg15
(lp625
S'UCSD Extension Complex - Building O - West'
p626
assS'292'
p627
(dp628
g5
g3
sg6
S'University Extension - Building M'
p629
sg8
g3
sg9
S'2714'
p630
sg11
S'3368'
p631
sg13
g627
sg15
(lp632
S'UCSD Extension Complex - Building M'
p633
assS'293'
p634
(dp635
g5
g3
sg6
S'University Extension - Building N'
p636
sg8
g3
sg9
S'2751'
p637
sg11
S'3263'
p638
sg13
g634
sg15
(lp639
S'UCSD Extension Complex - Building N'
p640
assS'290'
p641
(dp642
g5
g3
sg6
S'University Extension - Building J'
p643
sg8
g3
sg9
S'2772'
p644
sg11
S'3302'
p645
sg13
g641
sg15
(lp646
S'UCSD Extension Complex - Building J'
p647
assS'291'
p648
(dp649
g5
g3
sg6
S'University Extension - Building K'
p650
sg8
g3
sg9
S'2768'
p651
sg11
S'3368'
p652
sg13
g648
sg15
(lp653
S'UCSD Extension Complex - Building K'
p654
assS'199'
p655
(dp656
g5
g3
sg6
S'Marshall Apartments II - 6 Bldgs'
p657
sg8
g3
sg9
S'2795'
p658
sg11
S'4265'
p659
sg13
g655
sg15
(lp660
S'Marshall Uppers'
p661
aS'Upper Marshall Apartments'
p662
assS'198'
p663
(dp664
g5
g3
sg6
S'Marshall College Residence Hall Center'
p665
sg8
g3
sg9
S'2760'
p666
sg11
S'4305'
p667
sg13
g663
sg15
(lp668
ssS'195'
p669
(dp670
g5
g3
sg6
S'Marshall Apartments I - 7 Bldgs'
p671
sg8
g3
sg9
S'2567'
p672
sg11
S'3782'
p673
sg13
g669
sg15
(lp674
S'Lower Marshall Apartments'
p675
aS'Marshall Lowers'
p676
assS'194'
p677
(dp678
g5
g3
sg6
S"Marshall College Dean's Residence"
p679
sg8
g3
sg9
S'2867'
p680
sg11
S'4367'
p681
sg13
g677
sg15
(lp682
S'Fireside Lounge'
p683
assg277
g272
sg524
g519
sS'190'
p684
(dp685
g5
g3
sg6
S'Marine Sciences Development Shop'
p686
sg8
g3
sg9
S'7795'
p687
sg11
S'724'
p688
sg13
g684
sg15
(lp689
S'8610 Discovery Way'
p690
aS'MSD Shop'
p691
aS'T-6333'
p692
assg140
g135
sS'192'
p693
(dp694
g5
g3
sg6
S'Mandell Weiss Theatre'
p695
sg8
g3
sg9
S'5924'
p696
sg11
S'3741'
p697
sg13
g693
sg15
(lp698
ssS'270'
p699
(dp700
g5
g3
sg6
S'SIO Storehouse'
p701
sg8
g3
sg9
S'7170'
p702
sg11
S'953'
p703
sg13
g699
sg15
(lp704
S'8662 Discovery Way'
p705
aS'T-42 - SIO Storehouse'
p706
assS'271'
p707
(dp708
g5
g3
sg6
S'Benthic Lab and Support Shop'
p709
sg8
g3
sg9
S'7233'
p710
sg11
S'894'
p711
sg13
g707
sg15
(lp712
S'8664 Discovery Way'
p713
aS'Benthic Lab and Staff Support Shop - T-43'
p714
assS'272'
p715
(dp716
g5
g3
sg6
S'Storage and Staging Facility - Seaweed Canyon'
p717
sg8
g3
sg9
S'7658'
p718
sg11
S'1815'
p719
sg13
g715
sg15
(lp720
S'T-44 - Seaweed Canyon Storage and Staging Facility'
p721
assS'273'
p722
(dp723
g5
g3
sg6
S'Equipment Facility - Seaweed Canyon'
p724
sg8
g3
sg9
S'7779'
p725
sg11
S'1867'
p726
sg13
g722
sg15
(lp727
S'T-45 - Seaweed Canyon Equipment Facility'
p728
assS'274'
p729
(dp730
g5
g3
sg6
S'Storage Facility - Seaweed Canyon'
p731
sg8
g3
sg9
S'7537'
p732
sg11
S'1844'
p733
sg13
g729
sg15
(lp734
S'Seaweed Canyon Storage Facility - T-46'
p735
assS'275'
p736
(dp737
g5
g3
sg6
S'Surfside'
p738
sg8
g3
sg9
S'7839'
p739
sg11
S'727'
p740
sg13
g736
sg15
(lp741
S'T-8 - Student Offices/Conference Room'
p742
aS'Discovery Way, 8606'
p743
assS'276'
p744
(dp745
g5
g3
sg6
S'Torrey Pines Center North'
p746
sg8
g3
sg9
S'358'
p747
sg11
S'3515'
p748
sg13
g744
sg15
(lp749
S'10300 North Torrey Pines Road'
p750
aS'TPCN'
p751
assS'277'
p752
(dp753
g5
g3
sg6
S'Torrey Pines Center South'
p754
sg8
g3
sg9
S'663'
p755
sg11
S'3258'
p756
sg13
g752
sg15
(lp757
S'10280 North Torrey Pines Road'
p758
aS'TPCS'
p759
assS'278'
p760
(dp761
g5
g3
sg6
S'Tenaya Hall'
p762
sg8
g3
sg9
S'3621'
p763
sg11
S'3380'
p764
sg13
g760
sg15
(lp765
S'Muir College Residence Hall Tenaya'
p766
assS'279'
p767
(dp768
g5
g3
sg6
S'Mandell Weiss Theatre Shop'
p769
sg8
g3
sg9
S'6033'
p770
sg11
S'3765'
p771
sg13
g767
sg15
(lp772
S'Theater Shop - Mandell Weiss Theatre'
p773
assS'449'
p774
(dp775
g5
g3
sg6
S'Parking Lot P602'
p776
sg8
S'parking_a visitorparking'
p777
sg9
S'4395'
p778
sg11
S'5289'
p779
sg13
g774
sg15
(lp780
ssS'448'
p781
(dp782
g5
g3
sg6
S'Parking, Osler Lane'
p783
sg8
S'visitorparking'
p784
sg9
S'4904'
p785
sg11
S'5169'
p786
sg13
g781
sg15
(lp787
ssS'443'
p788
(dp789
g5
g3
sg6
S'Parking Lot P104'
p790
sg8
S'parking_a'
p791
sg9
S'5304'
p792
sg11
S'3569'
p793
sg13
g788
sg15
(lp794
ssS'442'
p795
(dp796
g5
g3
sg6
S'Parking Lot P201'
p797
sg8
S'visitorparking'
p798
sg9
S'4121'
p799
sg11
S'3739'
p800
sg13
g795
sg15
(lp801
ssS'440'
p802
(dp803
g5
g3
sg6
S'Parking Lot P206'
p804
sg8
S'visitorparking'
p805
sg9
S'3688'
p806
sg11
S'4054'
p807
sg13
g802
sg15
(lp808
ssS'447'
p809
(dp810
g5
g3
sg6
S'Parking Lot P608'
p811
sg8
S'parking_b parking_a'
p812
sg9
S'5507'
p813
sg11
S'5197'
p814
sg13
g809
sg15
(lp815
ssS'446'
p816
(dp817
g5
g3
sg6
S'Parking Lot P604'
p818
sg8
S'parking_b parking_a'
p819
sg9
S'5215'
p820
sg11
S'4838'
p821
sg13
g816
sg15
(lp822
ssS'445'
p823
(dp824
g5
g3
sg6
S'Parking Lot P104 North'
p825
sg8
S'visitorparking'
p826
sg9
S'5213'
p827
sg11
S'3473'
p828
sg13
g823
sg15
(lp829
ssS'444'
p830
(dp831
g5
g3
sg6
S'Parking Lot P103'
p832
sg8
S'parking_b parking_a'
p833
sg9
S'5419'
p834
sg11
S'3536'
p835
sg13
g830
sg15
(lp836
ssS'108'
p837
(dp838
g5
g3
sg6
S'Canyonview Aquatic and Climbing Wall Facility'
p839
sg8
g3
sg9
S'3350'
p840
sg11
S'6006'
p841
sg13
g837
sg15
(lp842
ssS'109'
p843
(dp844
g5
g3
sg6
S'Canyonview Rec/Athletics Administration (Construction)'
p845
sg8
g3
sg9
S'3334'
p846
sg11
S'5814'
p847
sg13
g843
sg15
(lp848
S'Canyonview Recreation/Athletics Administration'
p849
assS'103'
p850
(dp851
g5
g3
sg6
S'University Center, 311'
p852
sg8
g3
sg9
S'4088'
p853
sg11
S'5286'
p854
sg13
g850
sg15
(lp855
S'Campus Services Complex - Trailer 1'
p856
assS'100'
p857
(dp858
g5
g3
sg6
S'Campus Services Complex - Building D'
p859
sg8
g3
sg9
S'2446'
p860
sg11
S'6496'
p861
sg13
g857
sg15
(lp862
ssS'101'
p863
(dp864
g5
g3
sg6
S'Campus Services Complex - Building H'
p865
sg8
g3
sg9
S'2514'
p866
sg11
S'6541'
p867
sg13
g863
sg15
(lp868
ssS'106'
p869
(dp870
g5
g3
sg6
S'Isaacs Hall Trailer 2'
p871
sg8
g3
sg9
S'6359'
p872
sg11
S'1265'
p873
sg13
g869
sg15
(lp874
S'California Space Institute Trailer 2'
p875
assS'107'
p876
(dp877
g5
g3
sg6
S'Canyon Vista'
p878
sg8
S'food'
p879
sg9
S'2393'
p880
sg11
S'5667'
p881
sg13
g876
sg15
(lp882
S'Warren Residence Life Office'
p883
aS'Warren Apartments F/Dining Facility'
p884
aS'Canyon Vista Dining Facility'
p885
aS'Canyon Vista Administration Building'
p886
assS'104'
p887
(dp888
g5
g3
sg6
S'Campus Services Complex - Trailer 4'
p889
sg8
g3
sg9
S'2252'
p890
sg11
S'6517'
p891
sg13
g887
sg15
(lp892
ssS'105'
p893
(dp894
g5
g3
sg6
S'Isaacs Hall Trailer 1'
p895
sg8
g3
sg9
S'6335'
p896
sg11
S'1266'
p897
sg13
g893
sg15
(lp898
S'California Space Institute Trailer 1'
p899
assS'39'
p900
(dp901
g5
g3
sg6
S'Mesa Housing, 4043'
p902
sg8
g3
sg9
S'5024'
p903
sg11
S'8865'
p904
sg13
g900
sg15
(lp905
S'Mesa Housing North - 4043'
p906
assS'38'
p907
(dp908
g5
g3
sg6
S'University Center, 401'
p909
sg8
g3
sg9
S'3963'
p910
sg11
S'5037'
p911
sg13
g907
sg15
(lp912
ssS'33'
p913
(dp914
g5
g3
sg6
S'Mesa Housing, 3975'
p915
sg8
g3
sg9
S'5015'
p916
sg11
S'8695'
p917
sg13
g913
sg15
(lp918
S'Mesa Housing North - 3975'
p919
assS'32'
p920
(dp921
g5
g3
sg6
S'Mesa Housing, 3967'
p922
sg8
g3
sg9
S'4942'
p923
sg11
S'8661'
p924
sg13
g920
sg15
(lp925
S'Mesa Housing North - 3967'
p926
assS'31'
p927
(dp928
g5
g3
sg6
S'Mesa Housing, 3959'
p929
sg8
g3
sg9
S'4846'
p930
sg11
S'8603'
p931
sg13
g927
sg15
(lp932
S'Mesa Housing North - 3959'
p933
assS'30'
p934
(dp935
g5
g3
sg6
S'Mesa Housing, 3951'
p936
sg8
g3
sg9
S'4950'
p937
sg11
S'8587'
p938
sg13
g934
sg15
(lp939
S'Mesa Housing North - 3951'
p940
assS'37'
p941
(dp942
g5
g3
sg6
S'University Center, 400'
p943
sg8
g3
sg9
S'3983'
p944
sg11
S'5003'
p945
sg13
g941
sg15
(lp946
ssS'36'
p947
(dp948
g5
g3
sg6
S'Mesa Housing, 3999'
p949
sg8
g3
sg9
S'4926'
p950
sg11
S'8760'
p951
sg13
g947
sg15
(lp952
S'Mesa Housing North - 3999'
p953
assS'35'
p954
(dp955
g5
g3
sg6
S'Mesa Housing, 3991'
p956
sg8
g3
sg9
S'5044'
p957
sg11
S'8761'
p958
sg13
g954
sg15
(lp959
S'Mesa Housing North - 3991'
p960
assS'34'
p961
(dp962
g5
g3
sg6
S'Mesa Housing, 3983'
p963
sg8
g3
sg9
S'4872'
p964
sg11
S'8703'
p965
sg13
g961
sg15
(lp966
S'Mesa Housing North - 3983'
p967
assS'438'
p968
(dp969
g5
g3
sg6
S'Parking Lot P208'
p970
sg8
g3
sg9
S'3358'
p971
sg11
S'3384'
p972
sg13
g968
sg15
(lp973
ssS'439'
p974
(dp975
g5
g3
sg6
S'Parking Lot P207'
p976
sg8
S'parking_b parking_a'
p977
sg9
S'3361'
p978
sg11
S'3745'
p979
sg13
g974
sg15
(lp980
ssS'436'
p981
(dp982
g5
g3
sg6
S'Parking Lot P357'
p983
sg8
g3
sg9
S'1288'
p984
sg11
S'3739'
p985
sg13
g981
sg15
(lp986
ssS'437'
p987
(dp988
g5
g3
sg6
S'Parking Lot P356'
p989
sg8
S'parking_s parking_b parking_a'
p990
sg9
S'1174'
p991
sg11
S'3463'
p992
sg13
g987
sg15
(lp993
ssS'434'
p994
(dp995
g5
g3
sg6
S'Parking Lot P355'
p996
sg8
S'parking_a parking_b parking_s'
p997
sg9
S'1535'
p998
sg11
S'3399'
p999
sg13
g994
sg15
(lp1000
ssS'435'
p1001
(dp1002
g5
g3
sg6
S'Parking Lot P351'
p1003
sg8
g3
sg9
S'1573'
p1004
sg11
S'3683'
p1005
sg13
g1001
sg15
(lp1006
ssS'432'
p1007
(dp1008
g5
g3
sg6
S'El Mercado'
p1009
sg8
S'food'
p1010
sg9
S'3792'
p1011
sg11
S'3497'
p1012
sg13
g1007
sg15
(lp1013
ssS'433'
p1014
(dp1015
g5
g3
sg6
S'Parking, North Point'
p1016
sg8
S'parking_a parking_b parking_s'
p1017
sg9
S'734'
p1018
sg11
S'3886'
p1019
sg13
g1014
sg15
(lp1020
ssS'430'
p1021
(dp1022
g5
g3
sg6
S'Snackropolis'
p1023
sg8
S'food'
p1024
sg9
S'7541'
p1025
sg11
S'766'
p1026
sg13
g1021
sg15
(lp1027
ssS'431'
p1028
(dp1029
g5
g3
sg6
S'Sierra Summit'
p1030
sg8
S'food'
p1031
sg9
S'3808'
p1032
sg11
S'3514'
p1033
sg13
g1028
sg15
(lp1034
ssS'339'
p1035
(dp1036
g5
g3
sg6
S'UCSD Extension Complex - Building X'
p1037
sg8
g3
sg9
S'3076'
p1038
sg11
S'3259'
p1039
sg13
g1035
sg15
(lp1040
ssS'338'
p1041
(dp1042
g5
g3
sg6
S'Jacaranda'
p1043
sg8
g3
sg9
S'5250'
p1044
sg11
S'5301'
p1045
sg13
g1041
sg15
(lp1046
S'School of Medicine Module 869'
p1047
aS'Animal Care Program Module'
p1048
assS'335'
p1049
(dp1050
g5
g3
sg6
S'Holly'
p1051
sg8
g3
sg9
S'5172'
p1052
sg11
S'5328'
p1053
sg13
g1049
sg15
(lp1054
S'BIRN Module, 867 School of Medicine'
p1055
assS'334'
p1056
(dp1057
g5
g3
sg6
S'Campus Services Complex - Shops'
p1058
sg8
g3
sg9
S'2628'
p1059
sg11
S'6557'
p1060
sg13
g1056
sg15
(lp1061
ssS'337'
p1062
(dp1063
g5
g3
sg6
S'Ivy'
p1064
sg8
g3
sg9
S'5184'
p1065
sg11
S'5287'
p1066
sg13
g1062
sg15
(lp1067
S'School of Medicine Module 868'
p1068
assS'336'
p1069
(dp1070
g5
g3
sg6
S'Pangea Parking Structure'
p1071
sg8
S'parking_s parking_b parking_a visitorparking'
p1072
sg9
S'2253'
p1073
sg11
S'3404'
p1074
sg13
g1069
sg15
(lp1075
S'Parking Structure, North Torrey Pines Road'
p1076
assS'331'
p1077
(dp1078
g5
g3
sg6
S'Thornton Module 3'
p1079
sg8
g3
sg9
S'4025'
p1080
sg11
S'7076'
p1081
sg13
g1077
sg15
(lp1082
S'Modular Office Building 3, Thornton'
p1083
assS'330'
p1084
(dp1085
g5
g3
sg6
S'Thornton Module 1'
p1086
sg8
g3
sg9
S'4239'
p1087
sg11
S'7288'
p1088
sg13
g1084
sg15
(lp1089
S'Modular Office Building 1, Thornton'
p1090
assS'333'
p1091
(dp1092
g5
g3
sg6
S'CSC Service Building'
p1093
sg8
g3
sg9
S'2490'
p1094
sg11
S'6645'
p1095
sg13
g1091
sg15
(lp1096
S'Campus Services Complex - Fleet Services Building'
p1097
assS'332'
p1098
(dp1099
g5
g3
sg6
S'W. M. Keck Building'
p1100
sg8
g3
sg9
S'4857'
p1101
sg11
S'4984'
p1102
sg13
g1098
sg15
(lp1103
S'MRI Building, functional'
p1104
aS'Brain Imaging Center, School of Medicine'
p1105
aS'Keck Building, W. M. (fMRI)'
p1106
aS'Magnetic Resonance Imaging, functional'
p1107
assS'6'
p1108
(dp1109
g5
g3
sg6
S'University Center, 301A'
p1110
sg8
g3
sg9
S'4089'
p1111
sg11
S'5092'
p1112
sg13
g1108
sg15
(lp1113
ssS'99'
p1114
(dp1115
g5
g3
sg6
S'Campus Services Complex - Building C'
p1116
sg8
g3
sg9
S'2643'
p1117
sg11
S'6492'
p1118
sg13
g1114
sg15
(lp1119
ssS'98'
p1120
(dp1121
g5
g3
sg6
S'Campus Services Complex - Building B'
p1122
sg8
g3
sg9
S'2829'
p1123
sg11
S'6493'
p1124
sg13
g1120
sg15
(lp1125
ssg460
g455
sS'90'
p1126
(dp1127
g5
g3
sg6
S'Center for Coastal Studies'
p1128
sg8
g3
sg9
S'7219'
p1129
sg11
S'787'
p1130
sg13
g1126
sg15
(lp1131
S'8650 Discovery Way'
p1132
aS'CCS'
p1133
aS'Center for Coastal Studies Building'
p1134
assg105
g100
sg33
g28
sg470
g465
sg87
g82
sS'97'
p1135
(dp1136
g5
g3
sg6
S'Campus Services Complex - Building A'
p1137
sg8
g3
sg9
S'2949'
p1138
sg11
S'6575'
p1139
sg13
g1135
sg15
(lp1140
ssS'96'
p1141
(dp1142
g5
g3
sg6
S'Clinical Research Facility'
p1143
sg8
g3
sg9
S'4987'
p1144
sg11
S'5431'
p1145
sg13
g1141
sg15
(lp1146
S'CRF'
p1147
assS'238'
p1148
(dp1149
g5
g3
sg6
S'T. Wayland Vaughan Hall'
p1150
sg8
g3
sg9
S'7507'
p1151
sg11
S'1005'
p1152
sg13
g1148
sg15
(lp1153
S'Ritter Replacement Facility'
p1154
aS'Discovery Way, 8675'
p1155
aS'New Ritter'
p1156
aS'Endurance Hall'
p1157
assS'239'
p1158
(dp1159
g5
g3
sg6
S'Information Center - Gilman Entrance'
p1160
sg8
g3
sg9
S'5227'
p1161
sg11
S'4614'
p1162
sg13
g1158
sg15
(lp1163
ssS'234'
p1164
(dp1165
g5
g3
sg6
S'A. Ratner Childrens Eye Center'
p1166
sg8
g3
sg9
S'3727'
p1167
sg11
S'7978'
p1168
sg13
g1164
sg15
(lp1169
ssg498
g493
sg115
g110
sg251
g246
sg323
g317
sS'233'
p1170
(dp1171
g5
g3
sg6
S'Recreational and Intramural Athletic Complex'
p1172
sg8
g3
sg9
S'2007'
p1173
sg11
S'4054'
p1174
sg13
g1170
sg15
(lp1175
S'RIMAC'
p1176
assS'1'
p1177
(dp1178
g5
g3
sg6
S'University Center, 201'
p1179
sg8
g3
sg9
S'4085'
p1180
sg11
S'4898'
p1181
sg13
g1177
sg15
(lp1182
ssS'146'
p1183
(dp1184
g5
g3
sg6
S'University Center, 519'
p1185
sg8
g3
sg9
S'3616'
p1186
sg11
S'5763'
p1187
sg13
g1183
sg15
(lp1188
ssS'147'
p1189
(dp1190
g5
g3
sg6
S'University Center, 520'
p1191
sg8
g3
sg9
S'3539'
p1192
sg11
S'5670'
p1193
sg13
g1189
sg15
(lp1194
ssS'144'
p1195
(dp1196
g5
g3
sg6
S'University Center, 517A'
p1197
sg8
g3
sg9
S'3528'
p1198
sg11
S'5723'
p1199
sg13
g1195
sg15
(lp1200
S'University Center 726A'
p1201
assS'145'
p1202
(dp1203
g5
g3
sg6
S'University Center, 518'
p1204
sg8
g3
sg9
S'3573'
p1205
sg11
S'5704'
p1206
sg13
g1202
sg15
(lp1207
S'University Center 727'
p1208
assS'142'
p1209
(dp1210
g5
g3
sg6
S'Environmental Management Facility'
p1211
sg8
g3
sg9
S'2347'
p1212
sg11
S'6586'
p1213
sg13
g1209
sg15
(lp1214
S'MHF'
p1215
aS'EMF'
p1216
aS'Materials Handling Facility'
p1217
assS'143'
p1218
(dp1219
g5
g3
sg6
S'University Center, 517'
p1220
sg8
g3
sg9
S'3559'
p1221
sg11
S'5756'
p1222
sg13
g1218
sg15
(lp1223
S'726 University Center'
p1224
assS'140'
p1225
(dp1226
g5
g3
sg6
S'Early Childhood Education Center C'
p1227
sg8
g3
sg9
S'5249'
p1228
sg11
S'7916'
p1229
sg13
g1225
sg15
(lp1230
ssS'141'
p1231
(dp1232
g5
g3
sg6
S'Early Childhood Education Center D'
p1233
sg8
g3
sg9
S'5257'
p1234
sg11
S'8056'
p1235
sg13
g1231
sg15
(lp1236
ssS'148'
p1237
(dp1238
g5
g3
sg6
S'Sixth College, 789'
p1239
sg8
g3
sg9
S'4175'
p1240
sg11
S'5668'
p1241
sg13
g1237
sg15
(lp1242
S'701A Roosevelt College'
p1243
aS'ERC 701A'
p1244
assS'149'
p1245
(dp1246
g5
g3
sg6
S'Sixth- Bldg 797'
p1247
sg8
g3
sg9
S'4179'
p1248
sg11
S'5733'
p1249
sg13
g1245
sg15
(lp1250
S'Sixth College 797'
p1251
assS'133'
p1252
(dp1253
g5
g3
sg6
S'Dance Studio Facility'
p1254
sg8
g3
sg9
S'5731'
p1255
sg11
S'4022'
p1256
sg13
g1252
sg15
(lp1257
ssS'132'
p1258
(dp1259
g5
g3
sg6
S'Deep Sea Drilling West'
p1260
sg8
g3
sg9
S'6864'
p1261
sg11
S'1310'
p1262
sg13
g1258
sg15
(lp1263
ssS'131'
p1264
(dp1265
g5
g3
sg6
S'Deep Sea Drilling East'
p1266
sg8
g3
sg9
S'6929'
p1267
sg11
S'1450'
p1268
sg13
g1264
sg15
(lp1269
ssg533
g528
sg24
g19
sg42
g37
sS'135'
p1270
(dp1271
g5
g3
sg6
S'Discovery Hall'
p1272
sg8
g3
sg9
S'5093'
p1273
sg11
S'3636'
p1274
sg13
g1270
sg15
(lp1275
S'Revelle Residence Hall Discovery'
p1276
assS'134'
p1277
(dp1278
g5
g3
sg6
S'Date'
p1279
sg8
g3
sg9
S'4976'
p1280
sg11
S'5247'
p1281
sg13
g1277
sg15
(lp1282
ssS'139'
p1283
(dp1284
g5
g3
sg6
S'Early Childhood Education Center B'
p1285
sg8
g3
sg9
S'5190'
p1286
sg11
S'8056'
p1287
sg13
g1283
sg15
(lp1288
ssS'138'
p1289
(dp1290
g5
g3
sg6
S'Early Childhood Education Center A'
p1291
sg8
g3
sg9
S'5197'
p1292
sg11
S'7940'
p1293
sg13
g1289
sg15
(lp1294
ssS'24'
p1295
(dp1296
g5
g3
sg6
S'Mesa Housing, 3903'
p1297
sg8
g3
sg9
S'4921'
p1298
sg11
S'8372'
p1299
sg13
g1295
sg15
(lp1300
S'Mesa Housing North - 3903'
p1301
assS'25'
p1302
(dp1303
g5
g3
sg6
S'Mesa Housing, 3911'
p1304
sg8
g3
sg9
S'4837'
p1305
sg11
S'8410'
p1306
sg13
g1302
sg15
(lp1307
S'Mesa Housing North - 3911'
p1308
assS'26'
p1309
(dp1310
g5
g3
sg6
S'Mesa Housing, 3919'
p1311
sg8
g3
sg9
S'4970'
p1312
sg11
S'8436'
p1313
sg13
g1309
sg15
(lp1314
S'Mesa Housing North - 3919'
p1315
assS'27'
p1316
(dp1317
g5
g3
sg6
S'Mesa Housing, 3927'
p1318
sg8
g3
sg9
S'4821'
p1319
sg11
S'8474'
p1320
sg13
g1316
sg15
(lp1321
S'Mesa Housing North - 3927'
p1322
assS'20'
p1323
(dp1324
g5
g3
sg6
S'Mesa Housing, 3875'
p1325
sg8
g3
sg9
S'4794'
p1326
sg11
S'8210'
p1327
sg13
g1323
sg15
(lp1328
S'Mesa Housing North - 3875'
p1329
assS'21'
p1330
(dp1331
g5
g3
sg6
S'Mesa Housing, 3883'
p1332
sg8
g3
sg9
S'4929'
p1333
sg11
S'8228'
p1334
sg13
g1330
sg15
(lp1335
S'Mesa Housing North - 3883'
p1336
assS'22'
p1337
(dp1338
g5
g3
sg6
S'Mesa Housing, 3891'
p1339
sg8
g3
sg9
S'4851'
p1340
sg11
S'8274'
p1341
sg13
g1337
sg15
(lp1342
S'Mesa Housing North - 3891'
p1343
assS'23'
p1344
(dp1345
g5
g3
sg6
S'Mesa Housing, 3899'
p1346
sg8
g3
sg9
S'4794'
p1347
sg11
S'8331'
p1348
sg13
g1344
sg15
(lp1349
S'Mesa Housing North - 3899'
p1350
assS'28'
p1351
(dp1352
g5
g3
sg6
S'Mesa Housing, 3935'
p1353
sg8
g3
sg9
S'5007'
p1354
sg11
S'8525'
p1355
sg13
g1351
sg15
(lp1356
S'Mesa Housing North - 3935'
p1357
assS'29'
p1358
(dp1359
g5
g3
sg6
S'Mesa Housing, 3943'
p1360
sg8
g3
sg9
S'4876'
p1361
sg11
S'8524'
p1362
sg13
g1358
sg15
(lp1363
S'Mesa Housing North - 3943'
p1364
assS'406'
p1365
(dp1366
g5
g3
sg6
S'To La Jolla Shores Beach'
p1367
sg8
g3
sg9
S'8266'
p1368
sg11
S'911'
p1369
sg13
g1365
sg15
(lp1370
ssg178
g173
sg452
g447
sS'409'
p1371
(dp1372
g5
g3
sg6
S'School of Pharmacy & Pharmaceutical Sciences'
p1373
sg8
g3
sg9
S'5062'
p1374
sg11
S'5057'
p1375
sg13
g1371
sg15
(lp1376
ssg168
g163
sg159
g154
sS'371'
p1377
(dp1378
g5
g3
sg6
S'Latin America Hall'
p1379
sg8
g3
sg9
S'2045'
p1380
sg11
S'3284'
p1381
sg13
g1377
sg15
(lp1382
S'ERC, Bldg 4.4'
p1383
assS'370'
p1384
(dp1385
g5
g3
sg6
S'Europe Hall'
p1386
sg8
g3
sg9
S'1949'
p1387
sg11
S'3285'
p1388
sg13
g1384
sg15
(lp1389
S'ERC, Bldg 4.3'
p1390
assS'373'
p1391
(dp1392
g5
g3
sg6
S'ERC Laundry South'
p1393
sg8
g3
sg9
S'2184'
p1394
sg11
S'3371'
p1395
sg13
g1391
sg15
(lp1396
S'Bldg 4.6'
p1397
assS'372'
p1398
(dp1399
g5
g3
sg6
S'North America Hall'
p1400
sg8
g3
sg9
S'2143'
p1401
sg11
S'3282'
p1402
sg13
g1398
sg15
(lp1403
S'ERC, Bldg 4.5'
p1404
assS'375'
p1405
(dp1406
g5
g3
sg6
S'Middle East Hall'
p1407
sg8
g3
sg9
S'1901'
p1408
sg11
S'3495'
p1409
sg13
g1405
sg15
(lp1410
S'ERC, Bldg 3.1'
p1411
assS'374'
p1412
(dp1413
g5
g3
sg6
S'Earth Hall'
p1414
sg8
g3
sg9
S'1996'
p1415
sg11
S'3431'
p1416
sg13
g1412
sg15
(lp1417
S'ERC Rresidence Life Office'
p1418
aS'Earth North Apartments'
p1419
aS'Earth South Apartments'
p1420
aS'Middle Earth'
p1421
assS'377'
p1422
(dp1423
g5
g3
sg6
S'Hamilton Glaucoma and Jacobs Retina Center'
p1424
sg8
g3
sg9
S'3758'
p1425
sg11
S'8162'
p1426
sg13
g1422
sg15
(lp1427
ssS'376'
p1428
(dp1429
g5
g3
sg6
S'Oceania Hall'
p1430
sg8
g3
sg9
S'2092'
p1431
sg11
S'3495'
p1432
sg13
g1428
sg15
(lp1433
S'ERC, Bldg 3.3'
p1434
assS'393'
p1435
(dp1436
g5
g3
sg6
S'Oceanview Terrace'
p1437
sg8
S'food'
p1438
sg9
S'2612'
p1439
sg11
S'3489'
p1440
sg13
g1435
sg15
(lp1441
S'OVT'
p1442
assS'392'
p1443
(dp1444
g5
g3
sg6
S"Marshall Dean's Residence"
p1445
sg8
g3
sg9
S'2479'
p1446
sg11
S'3385'
p1447
sg13
g1443
sg15
(lp1448
ssg507
g502
sS'89'
p1449
(dp1450
g5
g3
sg6
S'Brown Hall'
p1451
sg8
g3
sg9
S'2501'
p1452
sg11
S'5889'
p1453
sg13
g1449
sg15
(lp1454
S'Single Graduate Apartments, Brown'
p1455
aS'Warren Graduate Apartments D/Brown Hall'
p1456
assS'397'
p1457
(dp1458
g5
g3
sg6
S'Music Department'
p1459
sg8
g3
sg9
S'3379'
p1460
sg11
S'5428'
p1461
sg13
g1457
sg15
(lp1462
ssS'396'
p1463
(dp1464
g5
g3
sg6
S"Earl's Place"
p1465
sg8
S'food'
p1466
sg9
S'2318'
p1467
sg11
S'5689'
p1468
sg13
g1463
sg15
(lp1469
ssS'82'
p1470
(dp1471
g5
g3
sg6
S'Bates Hall'
p1472
sg8
g3
sg9
S'2380'
p1473
sg11
S'5923'
p1474
sg13
g1470
sg15
(lp1475
S'Single Graduate Apartments'
p1476
aS'Warren Graduate Apartments E/Bates Hall'
p1477
assS'83'
p1478
(dp1479
g5
g3
sg6
S'Beagle Hall'
p1480
sg8
g3
sg9
S'5094'
p1481
sg11
S'3451'
p1482
sg13
g1478
sg15
(lp1483
S'Revelle Residence Hall Beagle'
p1484
assS'80'
p1485
(dp1486
g5
g3
sg6
S'Biology Field Station - Storage'
p1487
sg8
g3
sg9
S'2027'
p1488
sg11
S'6418'
p1489
sg13
g1485
sg15
(lp1490
S'Biology Field Station - Storage and Restroom'
p1491
assg393
g388
sg377
g372
sS'87'
p1492
(dp1493
g5
g3
sg6
S'Blake Hall'
p1494
sg8
g3
sg9
S'4855'
p1495
sg11
S'3679'
p1496
sg13
g1492
sg15
(lp1497
S'Revelle Residence Hall Blake'
p1498
assS'84'
p1499
(dp1500
g5
g3
sg6
S'Beech'
p1501
sg8
g3
sg9
S'4808'
p1502
sg11
S'5353'
p1503
sg13
g1499
sg15
(lp1504
S'Clinical Research'
p1505
assg287
g282
sS'7'
p1506
(dp1507
g5
g3
sg6
S'University Center, 302'
p1508
sg8
g3
sg9
S'4025'
p1509
sg11
S'5168'
p1510
sg13
g1506
sg15
(lp1511
ssS'245'
p1512
(dp1513
g5
g3
sg6
S'School of Medicine Building 4'
p1514
sg8
g3
sg9
S'4859'
p1515
sg11
S'5520'
p1516
sg13
g1512
sg15
(lp1517
ssS'244'
p1518
(dp1519
g5
g3
sg6
S'Seaweed Canyon Warehouse'
p1520
sg8
g3
sg9
S'7450'
p1521
sg11
S'1920'
p1522
sg13
g1518
sg15
(lp1523
ssg149
g144
sg403
g398
sS'241'
p1524
(dp1525
g5
g3
sg6
S'San Diego Supercomputer Office Addition'
p1526
sg8
g3
sg9
S'2167'
p1527
sg11
S'4046'
p1528
sg13
g1524
sg15
(lp1529
S'SDSC Addition'
p1530
assg188
g183
sS'243'
p1531
(dp1532
g5
g3
sg6
S'Seaweed Canyon Quonset Storage'
p1533
sg8
g3
sg9
S'7717'
p1534
sg11
S'1905'
p1535
sg13
g1531
sg15
(lp1536
ssg412
g407
sS'249'
p1537
(dp1538
g5
g3
sg6
S'Shiley Eye Center'
p1539
sg8
g3
sg9
S'3659'
p1540
sg11
S'8051'
p1541
sg13
g1537
sg15
(lp1542
ssg297
g292
sS'458'
p1543
(dp1544
g5
g3
sg6
S'Parking Lot P702'
p1545
sg8
S'parking_a parking_b parking_s'
p1546
sg9
S'3010'
p1547
sg11
S'7936'
p1548
sg13
g1543
sg15
(lp1549
ssS'459'
p1550
(dp1551
g5
g3
sg6
S'Parking Lot P703'
p1552
sg8
S'parking_a parking_b parking_s'
p1553
sg9
S'3522'
p1554
sg11
S'8584'
p1555
sg13
g1550
sg15
(lp1556
ssS'450'
p1557
(dp1558
g5
g3
sg6
S'Parking Lot P406'
p1559
sg8
S'parking_a parking_b parking_s'
p1560
sg9
S'4411'
p1561
sg11
S'6258'
p1562
sg13
g1557
sg15
(lp1563
ssS'451'
p1564
(dp1565
g5
g3
sg6
S'Parking Lot P503'
p1566
sg8
S'parking_a visitorparking'
p1567
sg9
S'2842'
p1568
sg11
S'5087'
p1569
sg13
g1564
sg15
(lp1570
ssS'452'
p1571
(dp1572
g5
g3
sg6
S'Parking Lot P502'
p1573
sg8
S'parking_b parking_a'
p1574
sg9
S'2463'
p1575
sg11
S'5272'
p1576
sg13
g1571
sg15
(lp1577
ssS'453'
p1578
(dp1579
g5
g3
sg6
S'Parking, Equality Lane'
p1580
sg8
S'visitorparking'
p1581
sg9
S'2597'
p1582
sg11
S'5453'
p1583
sg13
g1578
sg15
(lp1584
ssS'454'
p1585
(dp1586
g5
g3
sg6
S'Parking Lot P504'
p1587
sg8
S'parking_a parking_b parking_s visitorparking'
p1588
sg9
S'2835'
p1589
sg11
S'5898'
p1590
sg13
g1585
sg15
(lp1591
S'Parking, Justice Lane'
p1592
assS'455'
p1593
(dp1594
g5
g3
sg6
S'Parking Lot P665'
p1595
sg8
S'parking_b parking_a visitorparking'
p1596
sg9
S'3093'
p1597
sg11
S'6402'
p1598
sg13
g1593
sg15
(lp1599
S'Parking Lot P510'
p1600
assS'456'
p1601
(dp1602
g5
g3
sg6
S'Parking Lot P507'
p1603
sg8
S'visitorparking'
p1604
sg9
S'2872'
p1605
sg11
S'6662'
p1606
sg13
g1601
sg15
(lp1607
ssS'457'
p1608
(dp1609
g5
g3
sg6
S'Parking Lot P701'
p1610
sg8
S'parking_a parking_b parking_s'
p1611
sg9
S'3199'
p1612
sg11
S'7036'
p1613
sg13
g1608
sg15
(lp1614
ssg96
g91
sg242
g237
sS'177'
p1615
(dp1616
g5
g3
sg6
S'School of Medicine Building 1'
p1617
sg8
g3
sg9
S'4849'
p1618
sg11
S'5434'
p1619
sg13
g1615
sg15
(lp1620
S'Internal Medical Group Expansion'
p1621
aS'IMG Expansion'
p1622
assS'176'
p1623
(dp1624
g5
g3
sg6
S'School of Medicine Building 2'
p1625
sg8
g3
sg9
S'4750'
p1626
sg11
S'5443'
p1627
sg13
g1623
sg15
(lp1628
S'Internal Medical Group'
p1629
aS'IMG'
p1630
assS'175'
p1631
(dp1632
g5
g3
sg6
S'IGPP 4000'
p1633
sg8
g3
sg9
S'6669'
p1634
sg11
S'1215'
p1635
sg13
g1631
sg15
(lp1636
S'Revelle Laboratory 4000'
p1637
assS'174'
p1638
(dp1639
g5
g3
sg6
S'IGPP 3000'
p1640
sg8
g3
sg9
S'6815'
p1641
sg11
S'1189'
p1642
sg13
g1638
sg15
(lp1643
S'Revelle Laboratory 3000'
p1644
assS'173'
p1645
(dp1646
g5
g3
sg6
S'IGPP 2000'
p1647
sg8
g3
sg9
S'6810'
p1648
sg11
S'1142'
p1649
sg13
g1645
sg15
(lp1650
S'Revelle Laboratory 2000'
p1651
assS'172'
p1652
(dp1653
g5
g3
sg6
S'IGPP 1000'
p1654
sg8
g3
sg9
S'6640'
p1655
sg11
S'1145'
p1656
sg13
g1652
sg15
(lp1657
S'Revelle Laboratory 1000'
p1658
assS'171'
p1659
(dp1660
g5
g3
sg6
S'IGPP - Munk Lab'
p1661
sg8
g3
sg9
S'6673'
p1662
sg11
S'1075'
p1663
sg13
g1659
sg15
(lp1664
S'Munk Laboratory'
p1665
assS'170'
p1666
(dp1667
g5
g3
sg6
S'Hydraulics Laboratory'
p1668
sg8
g3
sg9
S'6504'
p1669
sg11
S'1194'
p1670
sg13
g1666
sg15
(lp1671
ssg233
g228
sS'182'
p1672
(dp1673
g5
g3
sg6
S'Robinson Building 2 - Auditorium'
p1674
sg8
g3
sg9
S'2282'
p1675
sg11
S'3883'
p1676
sg13
g1672
sg15
(lp1677
S"Int'l Relations and Pacific Studies - Auditorium"
p1678
assS'183'
p1679
(dp1680
g5
g3
sg6
S'Robinson Building 3 - Library'
p1681
sg8
g3
sg9
S'2355'
p1682
sg11
S'3834'
p1683
sg13
g1679
sg15
(lp1684
S"Int'l Relations and Pacific Studies - Library"
p1685
aS'Library - IRPS'
p1686
assg488
g483
sS'181'
p1687
(dp1688
g5
g3
sg6
S'Robinson Building 1 - Administration'
p1689
sg8
g3
sg9
S'2212'
p1690
sg11
S'3810'
p1691
sg13
g1687
sg15
(lp1692
S"Int'l Relations and Pacific Studies - Administration"
p1693
assS'186'
p1694
(dp1695
g5
g3
sg6
S'Isaacs Hall'
p1696
sg8
g3
sg9
S'6297'
p1697
sg11
S'1186'
p1698
sg13
g1694
sg15
(lp1699
S'NORPAX'
p1700
assS'187'
p1701
(dp1702
g5
g3
sg6
S'Sixth- Bldg 793'
p1703
sg8
g3
sg9
S'4003'
p1704
sg11
S'5831'
p1705
sg13
g1701
sg15
(lp1706
S'Sixth College 793'
p1707
assS'184'
p1708
(dp1709
g5
g3
sg6
S'Digital Image Processing Lab'
p1710
sg8
g3
sg9
S'7037'
p1711
sg11
S'1405'
p1712
sg13
g1708
sg15
(lp1713
S'Deep Sea Drilling Building C'
p1714
assS'185'
p1715
(dp1716
g5
g3
sg6
S'International Center'
p1717
sg8
g3
sg9
S'4091'
p1718
sg11
S'4525'
p1719
sg13
g1715
sg15
(lp1720
ssS'188'
p1721
(dp1722
g5
g3
sg6
S'Lifeguard Tower'
p1723
sg8
g3
sg9
S'7719'
p1724
sg11
S'657'
p1725
sg13
g1721
sg15
(lp1726
S'8614 Discovery Way'
p1727
assg216
g211
sS'11'
p1728
(dp1729
g5
g3
sg6
S'Mesa Housing, 3803'
p1730
sg8
g3
sg9
S'4808'
p1731
sg11
S'7855'
p1732
sg13
g1728
sg15
(lp1733
S'Mesa Housing North - 3803'
p1734
assS'10'
p1735
(dp1736
g5
g3
sg6
S'University Center, 310'
p1737
sg8
g3
sg9
S'4007'
p1738
sg11
S'5280'
p1739
sg13
g1735
sg15
(lp1740
S'Housing and Dining Services'
p1741
assS'13'
p1742
(dp1743
g5
g3
sg6
S'Mesa Housing, 3819'
p1744
sg8
g3
sg9
S'4817'
p1745
sg11
S'7934'
p1746
sg13
g1742
sg15
(lp1747
S'Mesa Housing North - 3819'
p1748
assS'12'
p1749
(dp1750
g5
g3
sg6
S'Mesa Housing, 3811'
p1751
sg8
g3
sg9
S'4930'
p1752
sg11
S'7885'
p1753
sg13
g1749
sg15
(lp1754
S'Mesa Housing North - 3811'
p1755
assS'15'
p1756
(dp1757
g5
g3
sg6
S'Mesa Housing, 3835'
p1758
sg8
g3
sg9
S'4792'
p1759
sg11
S'8003'
p1760
sg13
g1756
sg15
(lp1761
S'Mesa Housing North - 3835'
p1762
assS'14'
p1763
(dp1764
g5
g3
sg6
S'Mesa Housing, 3827'
p1765
sg8
g3
sg9
S'4946'
p1766
sg11
S'7977'
p1767
sg13
g1763
sg15
(lp1768
S'Mesa Housing North - 3827'
p1769
assS'17'
p1770
(dp1771
g5
g3
sg6
S'Mesa Housing, 3851'
p1772
sg8
g3
sg9
S'4833'
p1773
sg11
S'8070'
p1774
sg13
g1770
sg15
(lp1775
S'Mesa Housing North - 3851'
p1776
assS'16'
p1777
(dp1778
g5
g3
sg6
S'Mesa Housing, 3843'
p1779
sg8
g3
sg9
S'4975'
p1780
sg11
S'8069'
p1781
sg13
g1777
sg15
(lp1782
S'Mesa Housing North - 3843'
p1783
assS'19'
p1784
(dp1785
g5
g3
sg6
S'Mesa Housing, 3867'
p1786
sg8
g3
sg9
S'4845'
p1787
sg11
S'8150'
p1788
sg13
g1784
sg15
(lp1789
S'Mesa Housing North - 3867'
p1790
assS'18'
p1791
(dp1792
g5
g3
sg6
S'Mesa Housing, 3859'
p1793
sg8
g3
sg9
S'4938'
p1794
sg11
S'8132'
p1795
sg13
g1791
sg15
(lp1796
S'Mesa Housing North - 3859'
p1797
assS'62'
p1798
(dp1799
g5
g3
sg6
S'Coast Apartments, 9355'
p1800
sg8
g3
sg9
S'6081'
p1801
sg11
S'2303'
p1802
sg13
g1798
sg15
(lp1803
S'9355 Discovery Way'
p1804
assS'322'
p1805
(dp1806
g5
g3
sg6
S'Marshall College, 103A'
p1807
sg8
g3
sg9
S'3140'
p1808
sg11
S'4240'
p1809
sg13
g1805
sg15
(lp1810
ssS'323'
p1811
(dp1812
g5
g3
sg6
S'Gilman Parking Structure'
p1813
sg8
S'parking_s parking_b parking_a visitorparking'
p1814
sg9
S'4149'
p1815
sg11
S'5555'
p1816
sg13
g1811
sg15
(lp1817
ssS'320'
p1818
(dp1819
g5
g3
sg6
S'Marshall College, 102'
p1820
sg8
g3
sg9
S'3094'
p1821
sg11
S'4253'
p1822
sg13
g1818
sg15
(lp1823
ssS'321'
p1824
(dp1825
g5
g3
sg6
S'Marshall College, 103'
p1826
sg8
g3
sg9
S'3128'
p1827
sg11
S'4226'
p1828
sg13
g1824
sg15
(lp1829
ssS'326'
p1830
(dp1831
g5
g3
sg6
S'Guava Extension'
p1832
sg8
g3
sg9
S'5068'
p1833
sg11
S'5421'
p1834
sg13
g1830
sg15
(lp1835
S'Cancer Prevention'
p1836
aS'WHEL Study'
p1837
assS'327'
p1838
(dp1839
g5
g3
sg6
S'Farris Student Lounge'
p1840
sg8
g3
sg9
S'4818'
p1841
sg11
S'5202'
p1842
sg13
g1838
sg15
(lp1843
S'Club Med Student Lounge'
p1844
aS'Student Lounge, SoM'
p1845
assS'324'
p1846
(dp1847
g5
g3
sg6
S'Electric Shop'
p1848
sg8
g3
sg9
S'2784'
p1849
sg11
S'6559'
p1850
sg13
g1846
sg15
(lp1851
S'Campus Services Complex - Electric Shop'
p1852
assS'325'
p1853
(dp1854
g5
g3
sg6
S'Cal-(IT)2 Module'
p1855
sg8
g3
sg9
S'3176'
p1856
sg11
S'5803'
p1857
sg13
g1853
sg15
(lp1858
S'611 - JSOE Administrative Annex'
p1859
assS'328'
p1860
(dp1861
g5
g3
sg6
S'NMR Spectroscopy'
p1862
sg8
g3
sg9
S'3269'
p1863
sg11
S'3628'
p1864
sg13
g1860
sg15
(lp1865
S'Bubbles'
p1866
aS'Imaging of Proteins, Center for NMR Spectroscopy and'
p1867
aS'Inflatable Structure, NMR'
p1868
assS'329'
p1869
(dp1870
g5
g3
sg6
S'Thornton Module 2'
p1871
sg8
g3
sg9
S'3993'
p1872
sg11
S'7127'
p1873
sg13
g1869
sg15
(lp1874
S'Modular Office Building 2, Thornton'
p1875
assg260
g255
sS'200'
p1876
(dp1877
g5
g3
sg6
S'Matthews Apartments Building B'
p1878
sg8
g3
sg9
S'3806'
p1879
sg11
S'6235'
p1880
sg13
g1876
sg15
(lp1881
ssg341
g336
sg224
g219
sS'205'
p1882
(dp1883
g5
g3
sg6
S'Sixth- Bldg 794'
p1884
sg8
g3
sg9
S'4084'
p1885
sg11
S'5849'
p1886
sg13
g1882
sg15
(lp1887
S'Sixth College 794'
p1888
assS'204'
p1889
(dp1890
g5
g3
sg6
S'Meteor Hall'
p1891
sg8
g3
sg9
S'5174'
p1892
sg11
S'3614'
p1893
sg13
g1889
sg15
(lp1894
S'Revelle Residence Hall Meteor'
p1895
assS'207'
p1896
(dp1897
g5
g3
sg6
S'Muir College Apartments'
p1898
sg8
g3
sg9
S'3914'
p1899
sg11
S'3337'
p1900
sg13
g1896
sg15
(lp1901
S'Tuolumne Apartments'
p1902
assS'206'
p1903
(dp1904
g5
g3
sg6
S'Marshall College, 101'
p1905
sg8
g3
sg9
S'3036'
p1906
sg11
S'4247'
p1907
sg13
g1903
sg15
(lp1908
ssS'209'
p1909
(dp1910
g5
g3
sg6
S'Eucalyptus Point'
p1911
sg8
g3
sg9
S'3073'
p1912
sg11
S'4190'
p1913
sg13
g1909
sg15
(lp1914
S'Munch Box'
p1915
aS'Marshall College Commons'
p1916
aS'La Casa'
p1917
assS'208'
p1918
(dp1919
g5
g3
sg6
S'Stewart Commons'
p1920
sg8
g3
sg9
S'3792'
p1921
sg11
S'3515'
p1922
sg13
g1918
sg15
(lp1923
S'Muir College Commons'
p1924
assS'77'
p1925
(dp1926
g5
g3
sg6
S'Biology Field Station - Greenhouse 3'
p1927
sg8
g3
sg9
S'1912'
p1928
sg11
S'6481'
p1929
sg13
g1925
sg15
(lp1930
ssS'76'
p1931
(dp1932
g5
g3
sg6
S'Biology Field Station - Greenhouse 2'
p1933
sg8
g3
sg9
S'1965'
p1934
sg11
S'6483'
p1935
sg13
g1931
sg15
(lp1936
ssS'75'
p1937
(dp1938
g5
g3
sg6
S'Biology Field Station - Greenhouse 1'
p1939
sg8
g3
sg9
S'1966'
p1940
sg11
S'6435'
p1941
sg13
g1937
sg15
(lp1942
ssS'74'
p1943
(dp1944
g5
g3
sg6
S'Biology Field Station - Froghouse 1'
p1945
sg8
g3
sg9
S'2016'
p1946
sg11
S'6522'
p1947
sg13
g1943
sg15
(lp1948
S'Frog House, Biology Field Station'
p1949
assS'73'
p1950
(dp1951
g5
g3
sg6
S'Atlantis Hall'
p1952
sg8
g3
sg9
S'5151'
p1953
sg11
S'3505'
p1954
sg13
g1950
sg15
(lp1955
S'Revelle Residence Hall Atlantis'
p1956
assS'72'
p1957
(dp1958
g5
g3
sg6
S'Sixth- Bldg 790'
p1959
sg8
g3
sg9
S'3887'
p1960
sg11
S'5614'
p1961
sg13
g1957
sg15
(lp1962
S'Sixth College 790'
p1963
assS'71'
p1964
(dp1965
g5
g3
sg6
S'Ash'
p1966
sg8
g3
sg9
S'4756'
p1967
sg11
S'5353'
p1968
sg13
g1964
sg15
(lp1969
ssS'70'
p1970
(dp1971
g5
g3
sg6
S'Argo Hall'
p1972
sg8
g3
sg9
S'4980'
p1973
sg11
S'3681'
p1974
sg13
g1970
sg15
(lp1975
S'Revelle Residence Hall Argo'
p1976
assS'79'
p1977
(dp1978
g5
g3
sg6
S'Biology Field Station - Shadehouse 2'
p1979
sg8
g3
sg9
S'2036'
p1980
sg11
S'6523'
p1981
sg13
g1977
sg15
(lp1982
S'Biology Field Station - Shade House'
p1983
assS'78'
p1984
(dp1985
g5
g3
sg6
S'Biology Field Station - Laboratory'
p1986
sg8
g3
sg9
S'2026'
p1987
sg11
S'6482'
p1988
sg13
g1984
sg15
(lp1989
ssS'2'
p1990
(dp1991
g5
g3
sg6
S'University Center, 202'
p1992
sg8
g3
sg9
S'4162'
p1993
sg11
S'4843'
p1994
sg13
g1990
sg15
(lp1995
ssS'8'
p1996
(dp1997
g5
g3
sg6
S'Cancer Research Facility'
p1998
sg8
g3
sg9
S'4169'
p1999
sg11
S'5172'
p2000
sg13
g1996
sg15
(lp2001
S'University Center, 303'
p2002
assg123
g118
sS'120'
p2003
(dp2004
g5
g3
sg6
S'University Center 108'
p2005
sg8
g3
sg9
S'3873'
p2006
sg11
S'4810'
p2007
sg13
g2003
sg15
(lp2008
S"108 Chancellor's Complex"
p2009
assS'121'
p2010
(dp2011
g5
g3
sg6
S'University Center, 109'
p2012
sg8
g3
sg9
S'3836'
p2013
sg11
S'4790'
p2014
sg13
g2010
sg15
(lp2015
S"109 Chancellor's Complex"
p2016
assS'122'
p2017
(dp2018
g5
g3
sg6
S'University Center 110'
p2019
sg8
g3
sg9
S'3836'
p2020
sg11
S'4750'
p2021
sg13
g2017
sg15
(lp2022
S"110 Chancellor's Complex"
p2023
assS'123'
p2024
(dp2025
g5
g3
sg6
S'University Center, 111'
p2026
sg8
g3
sg9
S'3760'
p2027
sg11
S'4762'
p2028
sg13
g2024
sg15
(lp2029
S"Chancellor's Complex 111"
p2030
assS'124'
p2031
(dp2032
g5
g3
sg6
S'University Center 112'
p2033
sg8
g3
sg9
S'3804'
p2034
sg11
S'4738'
p2035
sg13
g2031
sg15
(lp2036
S"Chancellor's Complex 112"
p2037
assS'125'
p2038
(dp2039
g5
g3
sg6
S'Che Cafe'
p2040
sg8
S'food'
p2041
sg9
S'5443'
p2042
sg11
S'4226'
p2043
sg13
g2038
sg15
(lp2044
ssS'126'
p2045
(dp2046
g5
g3
sg6
S'Club Med'
p2047
sg8
S'food'
p2048
sg9
S'4817'
p2049
sg11
S'5257'
p2050
sg13
g2045
sg15
(lp2051
ssg207
g202
sS'128'
p2052
(dp2053
g5
g3
sg6
S'Crafts Center/Grove Gallery'
p2054
sg8
g3
sg9
S'4367'
p2055
sg11
S'4000'
p2056
sg13
g2052
sg15
(lp2057
S'Student Crafts Center'
p2058
assS'129'
p2059
(dp2060
g5
g3
sg6
S'University Center, 965'
p2061
sg8
g3
sg9
S'4233'
p2062
sg11
S'5350'
p2063
sg13
g2059
sg15
(lp2064
ssS'414'
p2065
(dp2066
g5
g3
sg6
S'Food Co-op'
p2067
sg8
S'food'
p2068
sg9
S'4233'
p2069
sg11
S'4092'
p2070
sg13
g2065
sg15
(lp2071
ssS'415'
p2072
(dp2073
g5
g3
sg6
S'AS Soft Reserves'
p2074
sg8
g3
sg9
S'4206'
p2075
sg11
S'4112'
p2076
sg13
g2072
sg15
(lp2077
ssS'416'
p2078
(dp2079
g5
g3
sg6
S'AS Lecture Notes'
p2080
sg8
g3
sg9
S'4212'
p2081
sg11
S'4128'
p2082
sg13
g2078
sg15
(lp2083
ssS'417'
p2084
(dp2085
g5
g3
sg6
S'Mandeville Auditorium'
p2086
sg8
g3
sg9
S'4080'
p2087
sg11
S'4272'
p2088
sg13
g2084
sg15
(lp2089
ssS'410'
p2090
(dp2091
g5
g3
sg6
S'Grove Cafe'
p2092
sg8
S'food'
p2093
sg9
S'4311'
p2094
sg11
S'4057'
p2095
sg13
g2090
sg15
(lp2096
ssS'411'
p2097
(dp2098
g5
g3
sg6
S'Student Radio Station, KSDT'
p2099
sg8
g3
sg9
S'4226'
p2100
sg11
S'4022'
p2101
sg13
g2097
sg15
(lp2102
ssS'412'
p2103
(dp2104
g5
g3
sg6
S'UCSD Bike Shop'
p2105
sg8
g3
sg9
S'4266'
p2106
sg11
S'4092'
p2107
sg13
g2103
sg15
(lp2108
ssS'413'
p2109
(dp2110
g5
g3
sg6
S'Student Center Conference Room'
p2111
sg8
g3
sg9
S'4204'
p2112
sg11
S'4057'
p2113
sg13
g2109
sg15
(lp2114
ssS'319'
p2115
(dp2116
g5
g3
sg6
S'Preuss School - Building F'
p2117
sg8
g3
sg9
S'2754'
p2118
sg11
S'8203'
p2119
sg13
g2115
sg15
(lp2120
ssS'318'
p2121
(dp2122
g5
g3
sg6
S'Preuss School - Building E'
p2123
sg8
g3
sg9
S'2884'
p2124
sg11
S'8212'
p2125
sg13
g2121
sg15
(lp2126
ssS'313'
p2127
(dp2128
g5
g3
sg6
S'Sixth College 701'
p2129
sg8
g3
sg9
S'4067'
p2130
sg11
S'5643'
p2131
sg13
g2127
sg15
(lp2132
S'788 Roosevelt College'
p2133
aS'Sixth College Student Services'
p2134
assg350
g345
sS'311'
p2135
(dp2136
g5
g3
sg6
S'Sixth College Dean Residence'
p2137
sg8
g3
sg9
S'4138'
p2138
sg11
S'5961'
p2139
sg13
g2135
sg15
(lp2140
S"Dean's Residence, Sixth College"
p2141
aS'702 Sixth College'
p2142
aS'Roosevelt College 702'
p2143
aS"Roosevelt College Dean's Residence"
p2144
assS'310'
p2145
(dp2146
g5
g3
sg6
S'Keck Oceanographic and Atmospheric Research - 2'
p2147
sg8
g3
sg9
S'6336'
p2148
sg11
S'1614'
p2149
sg13
g2145
sg15
(lp2150
S'OAR-2, Keck'
p2151
assS'317'
p2152
(dp2153
g5
g3
sg6
S'Preuss School - Building D'
p2154
sg8
g3
sg9
S'2854'
p2155
sg11
S'8260'
p2156
sg13
g2152
sg15
(lp2157
ssS'316'
p2158
(dp2159
g5
g3
sg6
S'Preuss School - Building C'
p2160
sg8
g3
sg9
S'2814'
p2161
sg11
S'8304'
p2162
sg13
g2158
sg15
(lp2163
ssS'315'
p2164
(dp2165
g5
g3
sg6
S'Preuss School - Building B'
p2166
sg8
g3
sg9
S'2772'
p2167
sg11
S'8339'
p2168
sg13
g2164
sg15
(lp2169
ssS'314'
p2170
(dp2171
g5
g3
sg6
S'Preuss School - Building A'
p2172
sg8
g3
sg9
S'2714'
p2173
sg11
S'8351'
p2174
sg13
g2170
sg15
(lp2175
ssS'3'
p2176
(dp2177
g5
g3
sg6
S'University Center, 214'
p2178
sg8
g3
sg9
S'3922'
p2179
sg11
S'4732'
p2180
sg13
g2176
sg15
(lp2181
S"Chancellor's Complex 214"
p2182
aS'Academic Senate'
p2183
assS'368'
p2184
(dp2185
g5
g3
sg6
S'Africa Hall'
p2186
sg8
g3
sg9
S'1758'
p2187
sg11
S'3287'
p2188
sg13
g2184
sg15
(lp2189
S'ERC, Bldg 4.1'
p2190
assS'369'
p2191
(dp2192
g5
g3
sg6
S'Asia Hall'
p2193
sg8
g3
sg9
S'1853'
p2194
sg11
S'3288'
p2195
sg13
g2191
sg15
(lp2196
S'ERC, Bldg 4.2'
p2197
assS'366'
p2198
(dp2199
g5
g3
sg6
S'ERC Administration South'
p2200
sg8
g3
sg9
S'1765'
p2201
sg11
S'3635'
p2202
sg13
g2198
sg15
(lp2203
ssS'367'
p2204
(dp2205
g5
g3
sg6
S'Cafe Ventanas'
p2206
sg8
S'food'
p2207
sg9
S'1768'
p2208
sg11
S'3410'
p2209
sg13
g2204
sg15
(lp2210
S'ERC, Bldg 6.1'
p2211
aS'ERC Dining'
p2212
assS'364'
p2213
(dp2214
g5
g3
sg6
S'Great Hall'
p2215
sg8
g3
sg9
S'2358'
p2216
sg11
S'3664'
p2217
sg13
g2213
sg15
(lp2218
S'International House Office'
p2219
aS'Roosevelt College, Great Hall'
p2220
aS'ERC, Great Hall'
p2221
assS'365'
p2222
(dp2223
g5
g3
sg6
S'ERC Administration North'
p2224
sg8
g3
sg9
S'1736'
p2225
sg11
S'3587'
p2226
sg13
g2222
sg15
(lp2227
ssS'362'
p2228
(dp2229
g5
g3
sg6
S'Asante House West'
p2230
sg8
g3
sg9
S'2269'
p2231
sg11
S'3591'
p2232
sg13
g2228
sg15
(lp2233
S'ERC, Bldg 2.4 West'
p2234
assS'363'
p2235
(dp2236
g5
g3
sg6
S'Asante House Meeting Rooms'
p2237
sg8
g3
sg9
S'2330'
p2238
sg11
S'3598'
p2239
sg13
g2235
sg15
(lp2240
ssS'360'
p2241
(dp2242
g5
g3
sg6
S'Cuzco House West'
p2243
sg8
g3
sg9
S'2180'
p2244
sg11
S'3587'
p2245
sg13
g2241
sg15
(lp2246
S'ERC, Bldg 2.3 West'
p2247
assS'361'
p2248
(dp2249
g5
g3
sg6
S'Asante House East'
p2250
sg8
g3
sg9
S'2277'
p2251
sg11
S'3680'
p2252
sg13
g2248
sg15
(lp2253
S'ERC, Bldg 2.4 East'
p2254
assS'380'
p2255
(dp2256
g5
g3
sg6
S'Interstate 5'
p2257
sg8
g3
sg9
S'5682'
p2258
sg11
S'6584'
p2259
sg13
g2255
sg15
(lp2260
ssS'383'
p2261
(dp2262
g5
g3
sg6
S'Matthews Apartments Building A'
p2263
sg8
g3
sg9
S'3769'
p2264
sg11
S'6091'
p2265
sg13
g2261
sg15
(lp2266
ssS'384'
p2267
(dp2268
g5
g3
sg6
S'Matthews Apartments Building C'
p2269
sg8
g3
sg9
S'3883'
p2270
sg11
S'6422'
p2271
sg13
g2267
sg15
(lp2272
ssS'385'
p2273
(dp2274
g5
g3
sg6
S'Matthews Apartments Building D'
p2275
sg8
g3
sg9
S'3945'
p2276
sg11
S'6217'
p2277
sg13
g2273
sg15
(lp2278
ssS'386'
p2279
(dp2280
g5
g3
sg6
S'Matthews Apartments Building E'
p2281
sg8
g3
sg9
S'3914'
p2282
sg11
S'6154'
p2283
sg13
g2279
sg15
(lp2284
ssS'387'
p2285
(dp2286
g5
g3
sg6
S'Foodworx'
p2287
sg8
S'food'
p2288
sg9
S'3818'
p2289
sg11
S'6318'
p2290
sg13
g2285
sg15
(lp2291
ssg421
g416
sS'60'
p2292
(dp2293
g5
g3
sg6
S'Coast Apartments, 9344'
p2294
sg8
g3
sg9
S'6239'
p2295
sg11
S'2464'
p2296
sg13
g2292
sg15
(lp2297
S'9344 Redwood Drive'
p2298
assS'61'
p2299
(dp2300
g5
g3
sg6
S'Coast Apartments, 9350'
p2301
sg8
g3
sg9
S'6196'
p2302
sg11
S'2509'
p2303
sg13
g2299
sg15
(lp2304
S'9350 Redwood Drive'
p2305
assS'258'
p2306
(dp2307
g5
g3
sg6
S'Student Center A - Student Resources'
p2308
sg8
g3
sg9
S'4190'
p2309
sg11
S'4149'
p2310
sg13
g2306
sg15
(lp2311
ssS'259'
p2312
(dp2313
g5
g3
sg6
S'Student Center B'
p2314
sg8
g3
sg9
S'4235'
p2315
sg11
S'4349'
p2316
sg13
g2312
sg15
(lp2317
ssS'64'
p2318
(dp2319
g5
g3
sg6
S'Coast Apartments, 9369'
p2320
sg8
g3
sg9
S'6000'
p2321
sg11
S'2349'
p2322
sg13
g2318
sg15
(lp2323
S'9369 Discovery Way'
p2324
assS'65'
p2325
(dp2326
g5
g3
sg6
S'Coast Apartments, 9383'
p2327
sg8
g3
sg9
S'5953'
p2328
sg11
S'2431'
p2329
sg13
g2325
sg15
(lp2330
S'9383 Discovery Way'
p2331
assS'66'
p2332
(dp2333
g5
g3
sg6
S'Coast Apartments, 9388'
p2334
sg8
g3
sg9
S'6070'
p2335
sg11
S'2488'
p2336
sg13
g2332
sg15
(lp2337
S'9388 Redwood Drive'
p2338
assS'67'
p2339
(dp2340
g5
g3
sg6
S'Coast Apartments, 9393'
p2341
sg8
g3
sg9
S'5967'
p2342
sg11
S'2521'
p2343
sg13
g2339
sg15
(lp2344
S'9393 Discovery Way'
p2345
assS'252'
p2346
(dp2347
g5
g3
sg6
S'Spanos Athletic Training Facility'
p2348
sg8
g3
sg9
S'733'
p2349
sg11
S'3978'
p2350
sg13
g2346
sg15
(lp2351
ssS'69'
p2352
(dp2353
g5
g3
sg6
S'Sixth- Bldg. 791'
p2354
sg8
g3
sg9
S'3914'
p2355
sg11
S'5692'
p2356
sg13
g2352
sg15
(lp2357
S'Sixth College 791'
p2358
assg541
g536
sS'251'
p2359
(dp2360
g5
g3
sg6
S'Mesa Housing South (all units)'
p2361
sg8
g3
sg9
S'5680'
p2362
sg11
S'8220'
p2363
sg13
g2359
sg15
(lp2364
ssS'256'
p2365
(dp2366
g5
g3
sg6
S'Student Center A'
p2367
sg8
g3
sg9
S'4255'
p2368
sg11
S'4077'
p2369
sg13
g2365
sg15
(lp2370
ssS'257'
p2371
(dp2372
g5
g3
sg6
S"Porter's Pub"
p2373
sg8
S'food'
p2374
sg9
S'4273'
p2375
sg11
S'4182'
p2376
sg13
g2371
sg15
(lp2377
S"Student Center - Porter's Pub and Stage"
p2378
assS'254'
p2379
(dp2380
g5
g3
sg6
S'Stewart Hall'
p2381
sg8
g3
sg9
S'2322'
p2382
sg11
S'5877'
p2383
sg13
g2379
sg15
(lp2384
S'Warren Residence Hall, Stewart'
p2385
assS'255'
p2386
(dp2387
g5
g3
sg6
S'Student Center A - Groundworks'
p2388
sg8
g3
sg9
S'4311'
p2389
sg11
S'4113'
p2390
sg13
g2386
sg15
(lp2391
ssg268
g263
sS'465'
p2392
(dp2393
g5
g3
sg6
S'Parking, Myers Drive'
p2394
sg8
S'visitorparking'
p2395
sg9
S'3756'
p2396
sg11
S'4905'
p2397
sg13
g2392
sg15
(lp2398
ssg14
g4
sS'466'
p2399
(dp2400
g5
g3
sg6
S'Parking Lot P102'
p2401
sg8
S'parking_b parking_a parking_s'
p2402
sg9
S'5644'
p2403
sg11
S'3439'
p2404
sg13
g2399
sg15
(lp2405
ssS'461'
p2406
(dp2407
g5
g3
sg6
S'Parking Lot P705'
p2408
sg8
S'parking_a parking_b parking_s'
p2409
sg9
S'3350'
p2410
sg11
S'9004'
p2411
sg13
g2406
sg15
(lp2412
ssS'460'
p2413
(dp2414
g5
g3
sg6
S'Parking Lot P704'
p2415
sg8
S'parking_a parking_b parking_s'
p2416
sg9
S'3645'
p2417
sg11
S'8959'
p2418
sg13
g2413
sg15
(lp2419
ssS'462'
p2420
(dp2421
g5
g3
sg6
S'Parking Lot P750'
p2422
sg8
S'parking_a parking_b parking_s'
p2423
sg9
S'3688'
p2424
sg11
S'6497'
p2425
sg13
g2420
sg15
(lp2426
S'Parking Lot P401'
p2427
assS'168'
p2428
(dp2429
g5
g3
sg6
S'High Bay Physics Laboratory'
p2430
sg8
g3
sg9
S'3552'
p2431
sg11
S'5406'
p2432
sg13
g2428
sg15
(lp2433
ssg479
g474
sS'164'
p2434
(dp2435
g5
g3
sg6
S'Guava'
p2436
sg8
g3
sg9
S'5070'
p2437
sg11
S'5377'
p2438
sg13
g2434
sg15
(lp2439
ssS'165'
p2440
(dp2441
g5
g3
sg6
S'Main Gymnasium'
p2442
sg8
g3
sg9
S'4241'
p2443
sg11
S'3802'
p2444
sg13
g2440
sg15
(lp2445
ssg359
g354
sS'167'
p2446
(dp2447
g5
g3
sg6
S'Harlan Hall'
p2448
sg8
g3
sg9
S'2169'
p2449
sg11
S'5899'
p2450
sg13
g2446
sg15
(lp2451
S'Warren Residence Hall, Harlan'
p2452
assS'160'
p2453
(dp2454
g5
g3
sg6
S'Galathea Hall'
p2455
sg8
g3
sg9
S'5151'
p2456
sg11
S'3689'
p2457
sg13
g2453
sg15
(lp2458
S'Revelle Residence Hall Galathea'
p2459
assg51
g46
sg61
g56
sS'163'
p2460
(dp2461
g5
g3
sg6
S'School of Medicine Building 3'
p2462
sg8
g3
sg9
S'4759'
p2463
sg11
S'5548'
p2464
sg13
g2460
sg15
(lp2465
S'Medical Genetics Building'
p2466
assS'9'
p2467
(dp2468
g5
g3
sg6
S'University Center, 309'
p2469
sg8
g3
sg9
S'4043'
p2470
sg11
S'5329'
p2471
sg13
g2467
sg15
(lp2472
S'University Center 309'
p2473
assS'357'
p2474
(dp2475
g5
g3
sg6
S'Kathmandu House East'
p2476
sg8
g3
sg9
S'2084'
p2477
sg11
S'3661'
p2478
sg13
g2474
sg15
(lp2479
S'ERC, Bldg 2.2 East'
p2480
assS'356'
p2481
(dp2482
g5
g3
sg6
S'ERC Laundry East'
p2483
sg8
g3
sg9
S'1994'
p2484
sg11
S'3672'
p2485
sg13
g2481
sg15
(lp2486
S'Bldg 2.5'
p2487
aS'East Laundry, Roosevelt College'
p2488
assS'355'
p2489
(dp2490
g5
g3
sg6
S'Geneva Hall West'
p2491
sg8
g3
sg9
S'1914'
p2492
sg11
S'3584'
p2493
sg13
g2489
sg15
(lp2494
S'ERC, Bldg 2.1 West'
p2495
assS'354'
p2496
(dp2497
g5
g3
sg6
S'Geneva Hall East'
p2498
sg8
g3
sg9
S'1913'
p2499
sg11
S'3658'
p2500
sg13
g2496
sg15
(lp2501
S'ERC, Bldg 2.1 East'
p2502
assS'353'
p2503
(dp2504
g5
g3
sg6
S'Mesa Verde Hall South'
p2505
sg8
g3
sg9
S'1841'
p2506
sg11
S'3769'
p2507
sg13
g2503
sg15
(lp2508
S'ERC, Bldg 1.1 South'
p2509
assS'352'
p2510
(dp2511
g5
g3
sg6
S'Mesa Verde Hall North'
p2512
sg8
g3
sg9
S'1770'
p2513
sg11
S'3769'
p2514
sg13
g2510
sg15
(lp2515
S'ERC, Bldg 1.1 North'
p2516
assS'351'
p2517
(dp2518
g5
g3
sg6
S'Magnolia'
p2519
sg8
g3
sg9
S'5307'
p2520
sg11
S'5296'
p2521
sg13
g2517
sg15
(lp2522
S'School of Medicine Module 872'
p2523
assS'350'
p2524
(dp2525
g5
g3
sg6
S'Laurel'
p2526
sg8
g3
sg9
S'5299'
p2527
sg11
S'5243'
p2528
sg13
g2524
sg15
(lp2529
S'School of Medicine Module 871'
p2530
assS'359'
p2531
(dp2532
g5
g3
sg6
S'Cuzco House East'
p2533
sg8
g3
sg9
S'2180'
p2534
sg11
S'3671'
p2535
sg13
g2531
sg15
(lp2536
S'ERC, Bldg 2.3 East'
p2537
assS'358'
p2538
(dp2539
g5
g3
sg6
S'Kathmandu House West'
p2540
sg8
g3
sg9
S'2085'
p2541
sg11
S'3580'
p2542
sg13
g2538
sg15
(lp2543
S'ERC, Bldg 2.2 West'
p2544
assS'216'
p2545
(dp2546
g5
g3
sg6
S'Isaacs Hall Trailer 3'
p2547
sg8
g3
sg9
S'6229'
p2548
sg11
S'1292'
p2549
sg13
g2545
sg15
(lp2550
S'ORD Trailer 2'
p2551
aS'NORPAX Trailer 1'
p2552
assS'217'
p2553
(dp2554
g5
g3
sg6
S'ORD Trailer 3'
p2555
sg8
g3
sg9
S'6295'
p2556
sg11
S'1289'
p2557
sg13
g2553
sg15
(lp2558
S'Satellite-Oceanography Facility'
p2559
assS'214'
p2560
(dp2561
g5
g3
sg6
S'Information Center - North Point Entrance'
p2562
sg8
g3
sg9
S'1062'
p2563
sg11
S'3924'
p2564
sg13
g2560
sg15
(lp2565
ssS'215'
p2566
(dp2567
g5
g3
sg6
S'ODP Core Building'
p2568
sg8
g3
sg9
S'7006'
p2569
sg11
S'1450'
p2570
sg13
g2566
sg15
(lp2571
ssS'212'
p2572
(dp2573
g5
g3
sg6
S'Nierenberg Hall'
p2574
sg8
g3
sg9
S'6556'
p2575
sg11
S'1403'
p2576
sg13
g2572
sg15
(lp2577
ssS'213'
p2578
(dp2579
g5
g3
sg6
S'Sixth- Bldg 795'
p2580
sg8
g3
sg9
S'4146'
p2581
sg11
S'5907'
p2582
sg13
g2578
sg15
(lp2583
S'795 Sixth College'
p2584
assS'210'
p2585
(dp2586
g5
g3
sg6
S'Natatorium'
p2587
sg8
g3
sg9
S'4250'
p2588
sg11
S'3674'
p2589
sg13
g2585
sg15
(lp2590
ssS'211'
p2591
(dp2592
g5
g3
sg6
S'New Scripps'
p2593
sg8
g3
sg9
S'7601'
p2594
sg11
S'732'
p2595
sg13
g2591
sg15
(lp2596
S'8622 Discovery Way'
p2597
assS'218'
p2598
(dp2599
g5
g3
sg6
S'Sixth- Bldg 796'
p2600
sg8
g3
sg9
S'4202'
p2601
sg11
S'5815'
p2602
sg13
g2598
sg15
(lp2603
S'Sixth College 796'
p2604
assS'219'
p2605
(dp2606
g5
g3
sg6
S"Old Director's House"
p2607
sg8
g3
sg9
S'7324'
p2608
sg11
S'1020'
p2609
sg13
g2605
sg15
(lp2610
S'8670 Discovery Way'
p2611
aS'Sea Grant College Program'
p2612
aS'T-16'
p2613
assS'289'
p2614
(dp2615
g5
g3
sg6
S'University Extension - Building H'
p2616
sg8
g3
sg9
S'2721'
p2617
sg11
S'3312'
p2618
sg13
g2614
sg15
(lp2619
S'UCSD Extension Complex - Building H'
p2620
assS'288'
p2621
(dp2622
g5
g3
sg6
S'University Extension - Building G Replacement'
p2623
sg8
g3
sg9
S'2824'
p2624
sg11
S'3264'
p2625
sg13
g2621
sg15
(lp2626
S'UCSD Extension Complex - Building G Replacement'
p2627
assS'4'
p2628
(dp2629
g5
g3
sg6
S'University Center, 215'
p2630
sg8
g3
sg9
S'3880'
p2631
sg11
S'4736'
p2632
sg13
g2628
sg15
(lp2633
S"Chancellor's Complex, 215"
p2634
assS'281'
p2635
(dp2636
g5
g3
sg6
S'Tioga Hall'
p2637
sg8
g3
sg9
S'3724'
p2638
sg11
S'3295'
p2639
sg13
g2635
sg15
(lp2640
S'Muir College Residence Hall Tioga'
p2641
assS'280'
p2642
(dp2643
g5
g3
sg6
S'Thornton Hospital'
p2644
sg8
g3
sg9
S'4065'
p2645
sg11
S'7430'
p2646
sg13
g2642
sg15
(lp2647
S'9300 Campus Point Drive'
p2648
aS'Medical Center - Thornton'
p2649
assS'283'
p2650
(dp2651
g5
g3
sg6
S'Extended Studies and Public Programs - Building B'
p2652
sg8
g3
sg9
S'2913'
p2653
sg11
S'3258'
p2654
sg13
g2650
sg15
(lp2655
S'University Extension - Building B'
p2656
aS'UCSD Extension Complex - Building B'
p2657
aS'ESPP - Building B'
p2658
assS'282'
p2659
(dp2660
g5
g3
sg6
S'Extended Studies and Public Programs - Building A'
p2661
sg8
g3
sg9
S'3034'
p2662
sg11
S'3301'
p2663
sg13
g2659
sg15
(lp2664
S'UCSD Extension Complex - Building A'
p2665
aS'University Extension - Building A'
p2666
aS'ESPP - Building A'
p2667
assS'285'
p2668
(dp2669
g5
g3
sg6
S'Extended Studies and Public Programs - Building D'
p2670
sg8
g3
sg9
S'2850'
p2671
sg11
S'3314'
p2672
sg13
g2668
sg15
(lp2673
S'ESPP - Building D'
p2674
aS'UCSD Extension Complex - Building D'
p2675
aS'University Extension - Building D'
p2676
assS'284'
p2677
(dp2678
g5
g3
sg6
S'Extended Studies and Public Programs - Building C'
p2679
sg8
g3
sg9
S'2984'
p2680
sg11
S'3363'
p2681
sg13
g2677
sg15
(lp2682
S'ESPP - Building C'
p2683
aS'University Extension - Building C'
p2684
aS'UCSD Extension Complex - Building C'
p2685
assS'287'
p2686
(dp2687
g5
g3
sg6
S'University Extension - Building F'
p2688
sg8
g3
sg9
S'2946'
p2689
sg11
S'3309'
p2690
sg13
g2686
sg15
(lp2691
S'UCSD Extension Complex - Building F'
p2692
assS'286'
p2693
(dp2694
g5
g3
sg6
S'Extended Studies and Public Programs - Building E'
p2695
sg8
g3
sg9
S'2906'
p2696
sg11
S'3353'
p2697
sg13
g2693
sg15
(lp2698
S'University Extension - Building E'
p2699
aS'ESPP - Building E'
p2700
aS'UCSD Extension Complex - Building E'
p2701
assS'263'
p2702
(dp2703
g5
g3
sg6
S'University Center, 515'
p2704
sg8
g3
sg9
S'3473'
p2705
sg11
S'5655'
p2706
sg13
g2702
sg15
(lp2707
S'721 University Center'
p2708
aS'T-100'
p2709
assg515
g510
sS'261'
p2710
(dp2711
g5
g3
sg6
S'Sumner Auditorium'
p2712
sg8
g3
sg9
S'7620'
p2713
sg11
S'1033'
p2714
sg13
g2710
sg15
(lp2715
S'Discovery Way, 8625'
p2716
assS'260'
p2717
(dp2718
g5
g3
sg6
S'Student Health and Wellness Center'
p2719
sg8
g3
sg9
S'3651'
p2720
sg11
S'4550'
p2721
sg13
g2717
sg15
(lp2722
ssS'267'
p2723
(dp2724
g5
g3
sg6
S'SIO Offices South - T-30'
p2725
sg8
g3
sg9
S'6407'
p2726
sg11
S'1041'
p2727
sg13
g2723
sg15
(lp2728
ssS'266'
p2729
(dp2730
g5
g3
sg6
S'SIO Administrative Computing'
p2731
sg8
g3
sg9
S'7736'
p2732
sg11
S'736'
p2733
sg13
g2729
sg15
(lp2734
S'Discovery Way, 8612'
p2735
aS'T-3 - SIO Administrative Computing'
p2736
assS'265'
p2737
(dp2738
g5
g3
sg6
S'Martin Johnson House'
p2739
sg8
g3
sg9
S'6452'
p2740
sg11
S'1030'
p2741
sg13
g2737
sg15
(lp2742
S'T-29 - Johnson Conference House'
p2743
assS'264'
p2744
(dp2745
g5
g3
sg6
S'T-25, SIO'
p2746
sg8
g3
sg9
S'6437'
p2747
sg11
S'1097'
p2748
sg13
g2744
sg15
(lp2749
ssS'269'
p2750
(dp2751
g5
g3
sg6
S'Diving Locker'
p2752
sg8
g3
sg9
S'7111'
p2753
sg11
S'842'
p2754
sg13
g2750
sg15
(lp2755
S'8660 Discovery Way'
p2756
aS'Diving Locker - T-40'
p2757
assS'268'
p2758
(dp2759
g5
g3
sg6
S'SIO Offices North - T-31'
p2760
sg8
g3
sg9
S'6360'
p2761
sg11
S'1072'
p2762
sg13
g2758
sg15
(lp2763
ssS'59'
p2764
(dp2765
g5
g3
sg6
S'Coast Apartments, 9334'
p2766
sg8
g3
sg9
S'6302'
p2767
sg11
S'2435'
p2768
sg13
g2764
sg15
(lp2769
S'9334 Redwood Drive'
p2770
assS'58'
p2771
(dp2772
g5
g3
sg6
S'Coast Apartments, 9331'
p2773
sg8
g3
sg9
S'6173'
p2774
sg11
S'2285'
p2775
sg13
g2771
sg15
(lp2776
S'9331 Discovery Way'
p2777
assS'55'
p2778
(dp2779
g5
g3
sg6
S'Outback Adventures'
p2780
sg8
g3
sg9
S'3776'
p2781
sg11
S'5631'
p2782
sg13
g2778
sg15
(lp2783
ssS'54'
p2784
(dp2785
g5
g3
sg6
S'University Center, 516'
p2786
sg8
g3
sg9
S'3496'
p2787
sg11
S'5599'
p2788
sg13
g2784
sg15
(lp2789
ssS'57'
p2790
(dp2791
g5
g3
sg6
S'Coast Apartments, 9321'
p2792
sg8
g3
sg9
S'6274'
p2793
sg11
S'2286'
p2794
sg13
g2790
sg15
(lp2795
S'9321 Discovery Way'
p2796
assS'56'
p2797
(dp2798
g5
g3
sg6
S'Coast Apartments, 9310'
p2799
sg8
g3
sg9
S'6368'
p2800
sg11
S'2314'
p2801
sg13
g2797
sg15
(lp2802
S'9310 Redwood Drive'
p2803
assS'51'
p2804
(dp2805
g5
g3
sg6
S'University Center, 502'
p2806
sg8
g3
sg9
S'3640'
p2807
sg11
S'5085'
p2808
sg13
g2804
sg15
(lp2809
ssS'50'
p2810
(dp2811
g5
g3
sg6
S'University Center, 501B'
p2812
sg8
g3
sg9
S'3536'
p2813
sg11
S'5082'
p2814
sg13
g2810
sg15
(lp2815
ssS'53'
p2816
(dp2817
g5
g3
sg6
S'University Center, 504'
p2818
sg8
g3
sg9
S'3577'
p2819
sg11
S'5114'
p2820
sg13
g2816
sg15
(lp2821
ssS'52'
p2822
(dp2823
g5
g3
sg6
S'University Center, 503'
p2824
sg8
g3
sg9
S'3607'
p2825
sg11
S'5081'
p2826
sg13
g2822
sg15
(lp2827
ssS'63'
p2828
(dp2829
g5
g3
sg6
S'Coast Apartments, 9366'
p2830
sg8
g3
sg9
S'6135'
p2831
sg11
S'2491'
p2832
sg13
g2828
sg15
(lp2833
S'9366 Redwood Drive'
p2834
assS'115'
p2835
(dp2836
g5
g3
sg6
S'Challenger Hall'
p2837
sg8
g3
sg9
S'5073'
p2838
sg11
S'3521'
p2839
sg13
g2835
sg15
(lp2840
S'Revelle Residence Hall Challenger'
p2841
assS'114'
p2842
(dp2843
g5
g3
sg6
S'Central Utilities Plant'
p2844
sg8
g3
sg9
S'5015'
p2845
sg11
S'4224'
p2846
sg13
g2842
sg15
(lp2847
ssS'117'
p2848
(dp2849
g5
g3
sg6
S'University Center, 105'
p2850
sg8
g3
sg9
S'3789'
p2851
sg11
S'4851'
p2852
sg13
g2848
sg15
(lp2853
S"105 Chancellor's Complex"
p2854
assS'116'
p2855
(dp2856
g5
g3
sg6
S'University Center, 104'
p2857
sg8
g3
sg9
S'3741'
p2858
sg11
S'4847'
p2859
sg13
g2855
sg15
(lp2860
S"104 Chancellor's Complex"
p2861
assS'111'
p2862
(dp2863
g5
g3
sg6
S'Cedar'
p2864
sg8
g3
sg9
S'4859'
p2865
sg11
S'5352'
p2866
sg13
g2862
sg15
(lp2867
ssS'110'
p2868
(dp2869
g5
g3
sg6
S'Career Services Center'
p2870
sg8
g3
sg9
S'3899'
p2871
sg11
S'4560'
p2872
sg13
g2868
sg15
(lp2873
ssS'113'
p2874
(dp2875
g5
g3
sg6
S'Central Mesa Housing - 23 Bldgs'
p2876
sg8
g3
sg9
S'5308'
p2877
sg11
S'8386'
p2878
sg13
g2874
sg15
(lp2879
ssg69
g64
sS'119'
p2880
(dp2881
g5
g3
sg6
S'University Center, 107'
p2882
sg8
g3
sg9
S'3832'
p2883
sg11
S'4840'
p2884
sg13
g2880
sg15
(lp2885
S"Chancellor's Complex 107"
p2886
assS'118'
p2887
(dp2888
g5
g3
sg6
S'University Center, 106'
p2889
sg8
g3
sg9
S'3792'
p2890
sg11
S'4818'
p2891
sg13
g2887
sg15
(lp2892
S"Chancellor's Complex 106"
p2893
assS'429'
p2894
(dp2895
g5
g3
sg6
S'Splash'
p2896
sg8
S'food'
p2897
sg9
S'7363'
p2898
sg11
S'1636'
p2899
sg13
g2894
sg15
(lp2900
ssS'428'
p2901
(dp2902
g5
g3
sg6
S'University Center, 501A'
p2903
sg8
g3
sg9
S'3605'
p2904
sg11
S'5023'
p2905
sg13
g2901
sg15
(lp2906
ssS'420'
p2907
(dp2908
g5
g3
sg6
S'Galbraith Hall'
p2909
sg8
g3
sg9
S'5222'
p2910
sg11
S'3847'
p2911
sg13
g2907
sg15
(lp2912
S'Revelle Acting Studios (A-D)'
p2913
aS'Revelle Singing / Voice Studio'
p2914
aS'Galbraith Theatre'
p2915
aS'Galbraith Light Lab'
p2916
aS'Theatre and Dance Department'
p2917
assS'423'
p2918
(dp2919
g5
g3
sg6
S'Southwest Fisheries'
p2920
sg8
g3
sg9
S'5866'
p2921
sg11
S'1230'
p2922
sg13
g2918
sg15
(lp2923
ssS'422'
p2924
(dp2925
g5
g3
sg6
S'LJ Shores Bridge East'
p2926
sg8
g3
sg9
S'6708'
p2927
sg11
S'1299'
p2928
sg13
g2924
sg15
(lp2929
ssS'427'
p2930
(dp2931
g5
g3
sg6
S'University Center, 501'
p2932
sg8
g3
sg9
S'3557'
p2933
sg11
S'5016'
p2934
sg13
g2930
sg15
(lp2935
ssS'308'
p2936
(dp2937
g5
g3
sg6
S'Keck Oceanographic and Atmospheric Research - 3'
p2938
sg8
g3
sg9
S'6377'
p2939
sg11
S'1532'
p2940
sg13
g2936
sg15
(lp2941
S'OAR-3, Keck'
p2942
assS'309'
p2943
(dp2944
g5
g3
sg6
S'Keck Oceanographic and Atmospheric Research - 1'
p2945
sg8
g3
sg9
S'6290'
p2946
sg11
S'1561'
p2947
sg13
g2943
sg15
(lp2948
S'OAR-1, Keck'
p2949
assS'300'
p2950
(dp2951
g5
g3
sg6
S'Visual Arts Facility - Building 2'
p2952
sg8
g3
sg9
S'3726'
p2953
sg11
S'5457'
p2954
sg13
g2950
sg15
(lp2955
ssS'301'
p2956
(dp2957
g5
g3
sg6
S'Visual Arts Facility - Building 3'
p2958
sg8
g3
sg9
S'3807'
p2959
sg11
S'5471'
p2960
sg13
g2956
sg15
(lp2961
ssS'302'
p2962
(dp2963
g5
g3
sg6
S'Visual Arts Facility - Building 4'
p2964
sg8
g3
sg9
S'3768'
p2965
sg11
S'5545'
p2966
sg13
g2962
sg15
(lp2967
ssS'303'
p2968
(dp2969
g5
g3
sg6
S'Visual Arts Facility - Building 5'
p2970
sg8
g3
sg9
S'3657'
p2971
sg11
S'5517'
p2972
sg13
g2968
sg15
(lp2973
ssS'304'
p2974
(dp2975
g5
g3
sg6
S'Visual Arts Facility - Building 6'
p2976
sg8
g3
sg9
S'3706'
p2977
sg11
S'5590'
p2978
sg13
g2974
sg15
(lp2979
ssS'306'
p2980
(dp2981
g5
g3
sg6
S'Warren Apartments - 4 units'
p2982
sg8
g3
sg9
S'2761'
p2983
sg11
S'5732'
p2984
sg13
g2980
sg15
(lp2985
S'Old Warren Apartments'
p2986
aS'Warren Undergraduate Apartments'
p2987
aS'Earl Warren Apartments'
p2988
assg368
g363
sS'229'
p2989
(dp2990
g5
g3
sg6
S'Powell Structural Components Laboratory'
p2991
sg8
g3
sg9
S'3386'
p2992
sg11
S'5237'
p2993
sg13
g2989
sg15
(lp2994
ssS'228'
p2995
(dp2996
g5
g3
sg6
S'Powell Structural Systems Laboratory'
p2997
sg8
g3
sg9
S'3274'
p2998
sg11
S'5277'
p2999
sg13
g2995
sg15
(lp3000
ssS'227'
p3001
(dp3002
g5
g3
sg6
S'Powell Structural Systems Lab Expansion'
p3003
sg8
g3
sg9
S'3491'
p3004
sg11
S'5232'
p3005
sg13
g3001
sg15
(lp3006
ssS'226'
p3007
(dp3008
g5
g3
sg6
S'Plaza Cafe'
p3009
sg8
S'food'
p3010
sg9
S'4919'
p3011
sg11
S'3565'
p3012
sg13
g3007
sg15
(lp3013
S'Revelle Plaza Cafe'
p3014
aS'Revelle College Commons'
p3015
assS'225'
p3016
(dp3017
g5
g3
sg6
S'Scripps Pier'
p3018
sg8
g3
sg9
S'7027'
p3019
sg11
S'170'
p3020
sg13
g3016
sg15
(lp3021
ssg132
g127
sS'223'
p3022
(dp3023
g5
g3
sg6
S'Perlman Ambulatory Care Unit'
p3024
sg8
g3
sg9
S'4015'
p3025
sg11
S'7597'
p3026
sg13
g3022
sg15
(lp3027
S'Ambulatory Care Center - Thornton'
p3028
aS'Perlman Ambulatory Care Center'
p3029
assS'222'
p3030
(dp3031
g5
g3
sg6
S'Sixth College Apartments (all units)'
p3032
sg8
g3
sg9
S'4071'
p3033
sg11
S'6313'
p3034
sg13
g3030
sg15
(lp3035
S'Pepper Canyon Apartments (all units)'
p3036
assg314
g309
sS'220'
p3037
(dp3038
g5
g3
sg6
S"Old Scripps/Director's Office"
p3039
sg8
g3
sg9
S'7571'
p3040
sg11
S'767'
p3041
sg13
g3037
sg15
(lp3042
S'8620 Discovery Way'
p3043
aS"SIO Director's Office/Old Scripps"
p3044
aS"Scripps Building/Director's Office"
p3045
assg333
g328
sg198
g193
sS'153'
p3046
(dp3047
g5
g3
sg6
S'Evergreen'
p3048
sg8
g3
sg9
S'5046'
p3049
sg11
S'5249'
p3050
sg13
g3046
sg15
(lp3051
ssS'152'
p3052
(dp3053
g5
g3
sg6
S'Sixth- Bldg 792'
p3054
sg8
g3
sg9
S'3939'
p3055
sg11
S'5770'
p3056
sg13
g3052
sg15
(lp3057
S'Sixth College 792'
p3058
assS'155'
p3059
(dp3060
g5
g3
sg6
S'Faculty Apartments at Mesa Housing'
p3061
sg8
g3
sg9
S'4958'
p3062
sg11
S'7568'
p3063
sg13
g3059
sg15
(lp3064
S'Mesa Housing Faculty Apartments - 6 Bldgs'
p3065
assS'154'
p3066
(dp3067
g5
g3
sg6
S'Experimental Aquarium'
p3068
sg8
g3
sg9
S'7431'
p3069
sg11
S'863'
p3070
sg13
g3066
sg15
(lp3071
S'8645 Discovery Way'
p3072
assS'157'
p3073
(dp3074
g5
g3
sg6
S'Fir'
p3075
sg8
g3
sg9
S'5098'
p3076
sg11
S'5252'
p3077
sg13
g3073
sg15
(lp3078
ssS'156'
p3079
(dp3080
g5
g3
sg6
S'Ida and Cecil Green Faculty Club'
p3081
sg8
g3
sg9
S'3690'
p3082
sg11
S'4180'
p3083
sg13
g3079
sg15
(lp3084
ssS'159'
p3085
(dp3086
g5
g3
sg6
S'Frankfurter Hall'
p3087
sg8
g3
sg9
S'2257'
p3088
sg11
S'5745'
p3089
sg13
g3085
sg15
(lp3090
S'Warren Residence Hall, Frankfurter'
p3091
assg443
g438
sS'398'
p3092
(dp3093
g5
g3
sg6
S'Cal-(IT)2'
p3094
sg8
g3
sg9
S'2745'
p3095
sg11
S'5381'
p3096
sg13
g3092
sg15
(lp3097
ssS'48'
p3098
(dp3099
g5
g3
sg6
S'University Center (Construction), 413'
p3100
sg8
g3
sg9
S'3909'
p3101
sg11
S'5274'
p3102
sg13
g3098
sg15
(lp3103
ssS'46'
p3104
(dp3105
g5
g3
sg6
S'Mesa Housing, 4091'
p3106
sg8
g3
sg9
S'4986'
p3107
sg11
S'9027'
p3108
sg13
g3104
sg15
(lp3109
S'Mesa Housing North - 4091'
p3110
assS'47'
p3111
(dp3112
g5
g3
sg6
S'Mesa Housing, 4099'
p3113
sg8
g3
sg9
S'5059'
p3114
sg11
S'9066'
p3115
sg13
g3111
sg15
(lp3116
S'Mesa Housing North - 4099'
p3117
assS'44'
p3118
(dp3119
g5
g3
sg6
S'Mesa Housing, 4083'
p3120
sg8
g3
sg9
S'5136'
p3121
sg11
S'9017'
p3122
sg13
g3118
sg15
(lp3123
S'Mesa Housing North - 4083'
p3124
assS'45'
p3125
(dp3126
g5
g3
sg6
S'University Center (Construction), 409'
p3127
sg8
g3
sg9
S'3720'
p3128
sg11
S'5334'
p3129
sg13
g3125
sg15
(lp3130
ssS'42'
p3131
(dp3132
g5
g3
sg6
S'Mesa Housing, 4067'
p3133
sg8
g3
sg9
S'5160'
p3134
sg11
S'8950'
p3135
sg13
g3131
sg15
(lp3136
S'Mesa Housing North - 4067'
p3137
assS'43'
p3138
(dp3139
g5
g3
sg6
S'Mesa Housing, 4075'
p3140
sg8
g3
sg9
S'5010'
p3141
sg11
S'8962'
p3142
sg13
g3138
sg15
(lp3143
S'Mesa Housing North - 4075'
p3144
assS'40'
p3145
(dp3146
g5
g3
sg6
S'Mesa Housing, 4051'
p3147
sg8
g3
sg9
S'5107'
p3148
sg11
S'8893'
p3149
sg13
g3145
sg15
(lp3150
S'Mesa Housing North - 4051'
p3151
assS'41'
p3152
(dp3153
g5
g3
sg6
S'Mesa Housing, 4059'
p3154
sg8
g3
sg9
S'4949'
p3155
sg11
S'8904'
p3156
sg13
g3152
sg15
(lp3157
S'Mesa Housing North - 4059'
p3158
assS'5'
p3159
(dp3160
g5
g3
sg6
S'University Ctr, 301'
p3161
sg8
g3
sg9
S'4110'
p3162
sg11
S'5037'
p3163
sg13
g3159
sg15
(lp3164
S'Registrar'
p3165
aS'University Center 301'
p3166
asssS'ByKeyword'
p3167
(dp3168
g3
(lp3169
g1178
ag1991
ag2177
ag2629
ag3160
ag1109
ag1507
ag1997
ag2468
ag1736
ag1729
ag1750
ag1743
ag1764
ag1757
ag1778
ag1771
ag1792
ag1785
ag1324
ag1331
ag1338
ag1345
ag1296
ag1303
ag1310
ag1317
ag1352
ag1359
ag935
ag928
ag921
ag914
ag962
ag955
ag948
ag942
ag908
ag901
ag3146
ag3153
ag3132
ag3139
ag3119
ag3126
ag3105
ag3112
ag3099
ag2811
ag2805
ag2823
ag2817
ag2785
ag2779
ag2798
ag2791
ag2772
ag2765
ag2293
ag2300
ag1799
ag2829
ag2319
ag2326
ag2333
ag2340
ag118
ag2353
ag1971
ag1965
ag1958
ag1951
ag1944
ag1938
ag1932
ag1926
ag1985
ag1978
ag1486
ag388
ag1471
ag1479
ag1500
ag282
ag372
ag1493
ag502
ag1450
ag1127
ag455
ag28
ag100
ag82
ag465
ag1142
ag1136
ag1121
ag1115
ag858
ag864
ag851
ag888
ag894
ag870
ag838
ag844
ag2869
ag2863
ag64
ag2875
ag2843
ag2836
ag2856
ag2849
ag2888
ag2881
ag2004
ag2011
ag2018
ag2025
ag2032
ag202
ag2053
ag2060
ag528
ag1265
ag1259
ag1253
ag1278
ag1271
ag37
ag19
ag1290
ag1284
ag1226
ag1232
ag1210
ag1219
ag1196
ag1203
ag1184
ag1190
ag1238
ag1246
ag193
ag328
ag3053
ag3047
ag3067
ag3060
ag3080
ag3074
ag438
ag3086
ag2454
ag46
ag56
ag2461
ag2435
ag2441
ag354
ag2447
ag2429
ag474
ag1667
ag1660
ag1653
ag1646
ag1639
ag1632
ag1624
ag1616
ag237
ag91
ag483
ag1688
ag1673
ag1680
ag1709
ag1716
ag1695
ag1702
ag1722
ag211
ag685
ag519
ag694
ag135
ag678
ag670
ag272
ag664
ag656
ag1877
ag255
ag219
ag336
ag1890
ag1883
ag1904
ag1897
ag1919
ag1910
ag2586
ag2592
ag2573
ag2579
ag2561
ag2567
ag2546
ag2554
ag2599
ag2606
ag3038
ag309
ag3031
ag3023
ag127
ag3017
ag3002
ag2996
ag2990
ag1171
ag1165
ag493
ag110
ag246
ag1149
ag1159
ag183
ag1525
ag407
ag1532
ag1519
ag1513
ag398
ag144
ag292
ag1538
ag536
ag2360
ag2347
ag228
ag2380
ag2387
ag2366
ag2307
ag2313
ag2718
ag2711
ag510
ag2703
ag2745
ag2738
ag2730
ag2724
ag2759
ag2751
ag700
ag708
ag716
ag723
ag730
ag737
ag745
ag753
ag761
ag768
ag2643
ag2636
ag2660
ag2651
ag2678
ag2669
ag2694
ag2687
ag2622
ag2615
ag642
ag649
ag628
ag635
ag614
ag621
ag380
ag300
ag601
ag608
ag2951
ag2957
ag2963
ag2969
ag2975
ag2981
ag363
ag2937
ag2944
ag2146
ag2136
ag345
ag2128
ag2171
ag2165
ag2159
ag2153
ag2122
ag2116
ag1819
ag1825
ag1806
ag1847
ag1854
ag1831
ag1839
ag1861
ag1870
ag1085
ag1078
ag1099
ag1092
ag1057
ag1050
ag1063
ag1042
ag1036
ag566
ag573
ag580
ag587
ag547
ag553
ag72
ag559
ag425
ag594
ag2525
ag2518
ag2511
ag2504
ag2497
ag2490
ag2482
ag2475
ag2539
ag2532
ag2242
ag2249
ag2229
ag2236
ag2214
ag2223
ag2199
ag2185
ag2192
ag1385
ag1378
ag1399
ag1392
ag1413
ag1406
ag1429
ag1423
ag154
ag163
ag2256
ag2262
ag2268
ag2274
ag2280
ag416
ag1444
ag1458
ag3093
ag447
ag173
ag1366
ag1372
ag2098
ag2104
ag2110
ag2073
ag2079
ag2085
ag2908
ag2925
ag2919
ag2931
ag2902
ag1002
ag982
ag969
ag4
ag263
asS'visitorparking'
p3170
(lp3171
g1812
ag1070
ag803
ag796
ag824
ag782
ag775
ag1565
ag1579
ag1586
ag1594
ag1602
ag2393
asS'parking_a'
p3172
(lp3173
g1812
ag1070
ag1015
ag995
ag988
ag975
ag789
ag831
ag817
ag810
ag775
ag1558
ag1565
ag1572
ag1586
ag1594
ag1609
ag1544
ag1551
ag2414
ag2407
ag2421
ag2400
asS'parking_b'
p3174
(lp3175
g1812
ag1070
ag1015
ag995
ag988
ag975
ag831
ag817
ag810
ag1558
ag1572
ag1586
ag1594
ag1609
ag1544
ag1551
ag2414
ag2407
ag2421
ag2400
asg879
(lp3176
g877
ag2039
ag2046
ag3008
ag317
ag2372
ag2205
ag2286
ag1436
ag1464
ag2091
ag2066
ag2895
ag1022
ag1029
ag1008
asS'parking_s'
p3177
(lp3178
g1812
ag1070
ag1015
ag995
ag988
ag1558
ag1586
ag1609
ag1544
ag1551
ag2414
ag2407
ag2421
ag2400
ass.